; ModuleID = '/home/eskand38/HMPI/mpi_app_benchmarks/HMPI_integrate/hls/integrate/solution1/.autopilot/db/a.g.bc'
target datalayout = "e-p:64:64:64-i1:8:8-i8:8:8-i16:16:16-i32:32:32-i64:64:64-f32:32:32-f64:64:64-v64:64:64-v128:128:128-a0:0:64-s0:64:64-f80:128:128-n8:16:32:64-S128"
target triple = "x86_64-unknown-linux-gnu"

%"class.std::ios_base::Init" = type {}
%"class.hls::stream" = type { %struct.stream_packet }
%struct.stream_packet = type { %struct.ap_uint.9, %struct.ap_uint, %struct.ap_uint.12, %struct.ap_uint, %struct.ap_uint.15 }
%struct.ap_uint.9 = type { %struct.ap_int_base.10 }
%struct.ap_int_base.10 = type { %struct.ssdm_int.11 }
%struct.ssdm_int.11 = type { i64 }
%struct.ap_uint = type { %struct.ap_int_base }
%struct.ap_int_base = type { %struct.ssdm_int }
%struct.ssdm_int = type { i8 }
%struct.ap_uint.12 = type { %struct.ap_int_base.13 }
%struct.ap_int_base.13 = type { %struct.ssdm_int.14 }
%struct.ssdm_int.14 = type { i1 }
%struct.ap_uint.15 = type { %struct.ap_int_base.16 }
%struct.ap_int_base.16 = type { %struct.ssdm_int.17 }
%struct.ssdm_int.17 = type { i40 }
%struct.envelope = type { %struct.ap_uint, %struct.ap_uint, %struct.ap_uint.0, %struct.ap_uint, %struct.ap_uint.3, %struct.ap_uint.3, %struct.ap_uint.6 }
%struct.ap_uint.0 = type { %struct.ap_int_base.1 }
%struct.ap_int_base.1 = type { %struct.ssdm_int.2 }
%struct.ssdm_int.2 = type { i32 }
%struct.ap_uint.3 = type { %struct.ap_int_base.4 }
%struct.ap_int_base.4 = type { %struct.ssdm_int.5 }
%struct.ssdm_int.5 = type { i4 }
%struct.ap_uint.6 = type { %struct.ap_int_base.7 }
%struct.ap_int_base.7 = type { %struct.ssdm_int.8 }
%struct.ssdm_int.8 = type { i16 }
%"class.std::basic_istream" = type { i32 (...)**, i64, %"class.std::basic_ios" }
%"class.std::basic_ios" = type { %"class.std::ios_base", %"class.std::basic_ostream"*, i8, i1, %"class.std::basic_streambuf"*, %"class.std::ctype"*, %"class.std::num_put"*, %"class.std::num_get"* }
%"class.std::ios_base" = type { i32 (...)**, i64, i64, i17, i17, i17, %"struct.std::ios_base::_Callback_list"*, %"struct.std::ios_base::_Words", [8 x %"struct.std::ios_base::_Words"], i32, %"struct.std::ios_base::_Words"*, %"class.std::locale" }
%"struct.std::ios_base::_Callback_list" = type { %"struct.std::ios_base::_Callback_list"*, void (i2, %"class.std::ios_base"*, i32)*, i32, i32 }
%"struct.std::ios_base::_Words" = type { i8*, i64 }
%"class.std::locale" = type { %"class.std::locale::_Impl"* }
%"class.std::locale::_Impl" = type { i32, %"class.std::locale::facet"**, i64, %"class.std::locale::facet"**, i8** }
%"class.std::locale::facet" = type { i32 (...)**, i32 }
%"class.std::basic_ostream" = type { i32 (...)**, %"class.std::basic_ios" }
%"class.std::basic_streambuf" = type { i32 (...)**, i8*, i8*, i8*, i8*, i8*, i8*, %"class.std::locale" }
%"class.std::ctype" = type { %"class.std::locale::facet", %struct.__locale_struct*, i1, i32*, i32*, i16*, i8, [256 x i8], [256 x i8], i8 }
%struct.__locale_struct = type { [13 x %"class.std::ios_base::Init"*], i16*, i32*, i32*, [13 x i8*] }
%"class.std::num_put" = type { %"class.std::locale::facet" }
%"class.std::num_get" = type { %"class.std::locale::facet" }
%"class.std::basic_istream.25" = type { i32 (...)**, i64, %"class.std::basic_ios.27" }
%"class.std::basic_ios.27" = type { %"class.std::ios_base", %"class.std::basic_ostream.28"*, i32, i1, %"class.std::basic_streambuf.29"*, %"class.std::ctype.30"*, %"class.std::num_put.31"*, %"class.std::num_get.32"* }
%"class.std::basic_ostream.28" = type { i32 (...)**, %"class.std::basic_ios.27" }
%"class.std::basic_streambuf.29" = type { i32 (...)**, i32*, i32*, i32*, i32*, i32*, i32*, %"class.std::locale" }
%"class.std::ctype.30" = type { %"class.std::__ctype_abstract_base", %struct.__locale_struct*, i1, [128 x i8], [256 x i32], [16 x i16], [16 x i64] }
%"class.std::__ctype_abstract_base" = type { %"class.std::locale::facet" }
%"class.std::num_put.31" = type { %"class.std::locale::facet" }
%"class.std::num_get.32" = type { %"class.std::locale::facet" }
%struct.ap_range_ref = type { %struct.ap_int_base.10*, i32, i32 }
%struct.ap_range_ref.18 = type { %struct.ap_int_base.16*, i32, i32 }
%struct.ap_int_base.21 = type { %struct.ssdm_int.22 }
%struct.ssdm_int.22 = type { i65 }
%struct.ap_int_base.23 = type { %struct.ssdm_int.24 }
%struct.ssdm_int.24 = type { i66 }

@_ZStL8__ioinit = internal global %"class.std::ios_base::Init" zeroinitializer, align 1 ; [#uses=2 type=%"class.std::ios_base::Init"*]
@stream_out = global %"class.hls::stream" zeroinitializer, align 8 ; [#uses=19 type=%"class.hls::stream"*]
@stream_in = global %"class.hls::stream" zeroinitializer, align 8 ; [#uses=34 type=%"class.hls::stream"*]
@_ZL19float_request_array = internal global [512 x %struct.envelope] zeroinitializer, align 16 ; [#uses=66 type=[512 x %struct.envelope]*]
@_ZL17int_request_array = internal global [512 x %struct.envelope] zeroinitializer, align 16 ; [#uses=65 type=[512 x %struct.envelope]*]
@_ZL19float_clr2snd_array = internal global [512 x %struct.envelope] zeroinitializer, align 16 ; [#uses=66 type=[512 x %struct.envelope]*]
@_ZL17int_clr2snd_array = internal global [512 x %struct.envelope] zeroinitializer, align 16 ; [#uses=65 type=[512 x %struct.envelope]*]
@_ZZ8MPI_SendPii13MPI_DATA_TYPEiiiE5state = internal global i2 0, align 1 ; [#uses=6 type=i2*]
@_ZZ8MPI_SendPii13MPI_DATA_TYPEiiiE4time = internal global %struct.ap_uint.9 zeroinitializer, align 8 ; [#uses=6 type=%struct.ap_uint.9*]
@_ZGVZ8MPI_SendPii13MPI_DATA_TYPEiiiE4time = internal global i8 0 ; [#uses=2 type=i8*]
@_ZZ8MPI_SendPii13MPI_DATA_TYPEiiiE5envlp = internal global %struct.envelope zeroinitializer, align 4 ; [#uses=8 type=%struct.envelope*]
@_ZGVZ8MPI_SendPii13MPI_DATA_TYPEiiiE5envlp = internal global i8 0 ; [#uses=2 type=i8*]
@_ZL11int_clr_num = internal global i32 0, align 4 ; [#uses=39 type=i32*]
@_ZL11int_req_num = internal global i32 0, align 4 ; [#uses=39 type=i32*]
@_ZL13float_req_num = internal global i32 0, align 4 ; [#uses=42 type=i32*]
@_ZL13float_clr_num = internal global i32 0, align 4 ; [#uses=42 type=i32*]
@.str = private unnamed_addr constant [5 x i8] c"send\00", align 1 ; [#uses=1 type=[5 x i8]*]
@_ZZ8MPI_SendPfi13MPI_DATA_TYPEiiiE5state = internal global i2 0, align 1 ; [#uses=6 type=i2*]
@_ZZ8MPI_SendPfi13MPI_DATA_TYPEiiiE4time = internal global %struct.ap_uint.9 zeroinitializer, align 8 ; [#uses=6 type=%struct.ap_uint.9*]
@_ZGVZ8MPI_SendPfi13MPI_DATA_TYPEiiiE4time = internal global i8 0 ; [#uses=2 type=i8*]
@_ZZ8MPI_SendPfi13MPI_DATA_TYPEiiiE15envlp_lost_test = internal global i1 false, align 1 ; [#uses=2 type=i1*]
@_ZZ8MPI_SendPfi13MPI_DATA_TYPEiiiE5envlp = internal global %struct.envelope zeroinitializer, align 4 ; [#uses=8 type=%struct.envelope*]
@_ZGVZ8MPI_SendPfi13MPI_DATA_TYPEiiiE5envlp = internal global i8 0 ; [#uses=2 type=i8*]
@_ZZ8MPI_RecvPii13MPI_DATA_TYPEiiiE5state = internal global i2 0, align 1 ; [#uses=6 type=i2*]
@_ZZ8MPI_RecvPii13MPI_DATA_TYPEiiiE4time = internal global %struct.ap_uint.9 zeroinitializer, align 8 ; [#uses=5 type=%struct.ap_uint.9*]
@_ZGVZ8MPI_RecvPii13MPI_DATA_TYPEiiiE4time = internal global i8 0 ; [#uses=2 type=i8*]
@_ZZ8MPI_RecvPii13MPI_DATA_TYPEiiiE5envlp = internal global %struct.envelope zeroinitializer, align 4 ; [#uses=9 type=%struct.envelope*]
@_ZGVZ8MPI_RecvPii13MPI_DATA_TYPEiiiE5envlp = internal global i8 0 ; [#uses=2 type=i8*]
@_ZZ8MPI_RecvPfi13MPI_DATA_TYPEiiiE5state = internal global i2 0, align 1 ; [#uses=7 type=i2*]
@_ZZ8MPI_RecvPfi13MPI_DATA_TYPEiiiE4time = internal global %struct.ap_uint.9 zeroinitializer, align 8 ; [#uses=7 type=%struct.ap_uint.9*]
@_ZGVZ8MPI_RecvPfi13MPI_DATA_TYPEiiiE4time = internal global i8 0 ; [#uses=2 type=i8*]
@_ZZ8MPI_RecvPfi13MPI_DATA_TYPEiiiE13clr2snd_error = internal global i1 true, align 1 ; [#uses=2 type=i1*]
@_ZZ8MPI_RecvPfi13MPI_DATA_TYPEiiiE5envlp = internal global %struct.envelope zeroinitializer, align 4 ; [#uses=9 type=%struct.envelope*]
@_ZGVZ8MPI_RecvPfi13MPI_DATA_TYPEiiiE5envlp = internal global i8 0 ; [#uses=2 type=i8*]
@.str7 = private unnamed_addr constant [1 x i8] zeroinitializer, align 1 ; [#uses=1 type=[1 x i8]*]
@.str8 = private unnamed_addr constant [11 x i8] c"AXI4Stream\00", align 1 ; [#uses=1 type=[11 x i8]*]
@signgam = external global i32                    ; [#uses=0 type=i32*]
@_ZN9__gnu_cxx24__numeric_traits_integer11__is_signedE = external constant i1 ; [#uses=0 type=i1*]
@_ZN9__gnu_cxx24__numeric_traits_integer8__digitsE = external constant i32 ; [#uses=0 type=i32*]
@_ZN9__gnu_cxx25__numeric_traits_floating14__max_digits10E = external constant i32 ; [#uses=0 type=i32*]
@_ZN9__gnu_cxx25__numeric_traits_floating11__is_signedE = external constant i1 ; [#uses=0 type=i1*]
@_ZN9__gnu_cxx25__numeric_traits_floating10__digits10E = external constant i32 ; [#uses=0 type=i32*]
@_ZN9__gnu_cxx25__numeric_traits_floating16__max_exponent10E = external constant i32 ; [#uses=0 type=i32*]
@__daylight = external global i32                 ; [#uses=0 type=i32*]
@daylight = external global i32                   ; [#uses=0 type=i32*]
@getdate_err = external global i32                ; [#uses=0 type=i32*]
@optarg = external global i8*                     ; [#uses=0 type=i8**]
@optind = external global i32                     ; [#uses=0 type=i32*]
@opterr = external global i32                     ; [#uses=0 type=i32*]
@optopt = external global i32                     ; [#uses=0 type=i32*]
@_ZSt7nothrow = external global %"class.std::ios_base::Init" ; [#uses=0 type=%"class.std::ios_base::Init"*]
@_ZNSt6locale7_S_onceE = external global i32      ; [#uses=0 type=i32*]
@_ZNSt6locale5facet7_S_onceE = external global i32 ; [#uses=0 type=i32*]
@_ZNSt6locale2id11_S_refcountE = external global i32 ; [#uses=0 type=i32*]
@_ZNSt7collate2idE = external global %struct.ssdm_int.11 ; [#uses=0 type=%struct.ssdm_int.11*]
@_ZNSt8ios_base4Init11_S_refcountE = external global i32 ; [#uses=0 type=i32*]
@_ZNSt8ios_base4Init20_S_synced_with_stdioE = external global i1 ; [#uses=0 type=i1*]
@_ZNSt5ctype2idE = external global %struct.ssdm_int.11 ; [#uses=0 type=%struct.ssdm_int.11*]
@_ZNSt5ctypeIcE2idE = external global %struct.ssdm_int.11 ; [#uses=0 type=%struct.ssdm_int.11*]
@_ZNSt5ctypeIwE2idE = external global %struct.ssdm_int.11 ; [#uses=0 type=%struct.ssdm_int.11*]
@_ZNSt10__num_base12_S_atoms_outE = external global i8* ; [#uses=0 type=i8**]
@_ZNSt10__num_base11_S_atoms_inE = external global i8* ; [#uses=0 type=i8**]
@_ZNSt8numpunct2idE = external global %struct.ssdm_int.11 ; [#uses=0 type=%struct.ssdm_int.11*]
@_ZNSt7num_get2idE = external global %struct.ssdm_int.11 ; [#uses=0 type=%struct.ssdm_int.11*]
@_ZNSt7num_put2idE = external global %struct.ssdm_int.11 ; [#uses=0 type=%struct.ssdm_int.11*]
@_ZSt3cin = external global %"class.std::basic_istream" ; [#uses=0 type=%"class.std::basic_istream"*]
@_ZSt4cout = external global %"class.std::basic_ostream" ; [#uses=0 type=%"class.std::basic_ostream"*]
@_ZSt4cerr = external global %"class.std::basic_ostream" ; [#uses=0 type=%"class.std::basic_ostream"*]
@_ZSt4clog = external global %"class.std::basic_ostream" ; [#uses=0 type=%"class.std::basic_ostream"*]
@_ZSt4wcin = external global %"class.std::basic_istream.25" ; [#uses=0 type=%"class.std::basic_istream.25"*]
@_ZSt5wcout = external global %"class.std::basic_ostream.28" ; [#uses=0 type=%"class.std::basic_ostream.28"*]
@_ZSt5wcerr = external global %"class.std::basic_ostream.28" ; [#uses=0 type=%"class.std::basic_ostream.28"*]
@_ZSt5wclog = external global %"class.std::basic_ostream.28" ; [#uses=0 type=%"class.std::basic_ostream.28"*]
@_IO_2_1_stdin_ = external global %"class.std::ios_base::Init" ; [#uses=0 type=%"class.std::ios_base::Init"*]
@_IO_2_1_stdout_ = external global %"class.std::ios_base::Init" ; [#uses=0 type=%"class.std::ios_base::Init"*]
@_IO_2_1_stderr_ = external global %"class.std::ios_base::Init" ; [#uses=0 type=%"class.std::ios_base::Init"*]
@sys_nerr = external global i32                   ; [#uses=0 type=i32*]
@_sys_nerr = external global i32                  ; [#uses=0 type=i32*]
@llvm.global_ctors = appending global [1 x { i32, void ()* }] [{ i32, void ()* } { i32 65535, void ()* @_GLOBAL__I_a }] ; [#uses=0 type=[1 x { i32, void ()* }]*]

; [#uses=1]
define internal void @__cxx_global_var_init() nounwind section ".text.startup" {
  call void @_ZNSt8ios_base4InitC1Ev(%"class.std::ios_base::Init"* @_ZStL8__ioinit)
  %1 = call i32 @atexit(void ()* @__dtor__ZStL8__ioinit) ; [#uses=0 type=i32]
  ret void
}

; [#uses=1]
declare void @_ZNSt8ios_base4InitC1Ev(%"class.std::ios_base::Init"*)

; [#uses=1]
declare void @_ZNSt8ios_base4InitD1Ev(%"class.std::ios_base::Init"*)

; [#uses=1]
define internal void @__dtor__ZStL8__ioinit() nounwind section ".text.startup" {
  call void @_ZNSt8ios_base4InitD1Ev(%"class.std::ios_base::Init"* @_ZStL8__ioinit)
  ret void
}

; [#uses=1]
declare i32 @atexit(void ()*) nounwind

; [#uses=9]
define void @_Z18envelope_to_packetP8envelopeP13stream_packet(%struct.envelope* %envlp, %struct.stream_packet* %packet) nounwind uwtable {
  %1 = alloca %struct.envelope*, align 8          ; [#uses=9 type=%struct.envelope**]
  %2 = alloca %struct.stream_packet*, align 8     ; [#uses=10 type=%struct.stream_packet**]
  %3 = alloca %struct.ap_range_ref, align 8       ; [#uses=2 type=%struct.ap_range_ref*]
  %4 = alloca %struct.ap_range_ref, align 8       ; [#uses=2 type=%struct.ap_range_ref*]
  %5 = alloca %struct.ap_range_ref, align 8       ; [#uses=2 type=%struct.ap_range_ref*]
  %6 = alloca %struct.ap_range_ref, align 8       ; [#uses=2 type=%struct.ap_range_ref*]
  %7 = alloca %struct.ap_range_ref, align 8       ; [#uses=2 type=%struct.ap_range_ref*]
  %8 = alloca %struct.ap_range_ref, align 8       ; [#uses=2 type=%struct.ap_range_ref*]
  %9 = alloca %struct.ap_uint, align 1            ; [#uses=2 type=%struct.ap_uint*]
  %10 = alloca %struct.ap_uint.12, align 1        ; [#uses=2 type=%struct.ap_uint.12*]
  store %struct.envelope* %envlp, %struct.envelope** %1, align 8
  call void @llvm.dbg.declare(metadata !{%struct.envelope** %1}, metadata !7877), !dbg !7878 ; [debug line = 69:36] [debug variable = envlp]
  store %struct.stream_packet* %packet, %struct.stream_packet** %2, align 8
  call void @llvm.dbg.declare(metadata !{%struct.stream_packet** %2}, metadata !7879), !dbg !7880 ; [debug line = 69:59] [debug variable = packet]
  %11 = load %struct.stream_packet** %2, align 8, !dbg !7881 ; [#uses=1 type=%struct.stream_packet*] [debug line = 71:2]
  %12 = getelementptr inbounds %struct.stream_packet* %11, i32 0, i32 0, !dbg !7881 ; [#uses=1 type=%struct.ap_uint.9*] [debug line = 71:2]
  %13 = bitcast %struct.ap_uint.9* %12 to %struct.ap_int_base.10*, !dbg !7881 ; [#uses=1 type=%struct.ap_int_base.10*] [debug line = 71:2]
  call void @_ZN11ap_int_baseILi64ELb0ELb1EEclEii(%struct.ap_range_ref* sret %3, %struct.ap_int_base.10* %13, i32 7, i32 0), !dbg !7881 ; [debug line = 71:2]
  %14 = load %struct.envelope** %1, align 8, !dbg !7881 ; [#uses=1 type=%struct.envelope*] [debug line = 71:2]
  %15 = getelementptr inbounds %struct.envelope* %14, i32 0, i32 0, !dbg !7881 ; [#uses=1 type=%struct.ap_uint*] [debug line = 71:2]
  %16 = bitcast %struct.ap_uint* %15 to %struct.ap_int_base*, !dbg !7881 ; [#uses=1 type=%struct.ap_int_base*] [debug line = 71:2]
  %17 = call %struct.ap_range_ref* @_ZN12ap_range_refILi64ELb0EEaSILi8ELb0EEERS0_RK11ap_int_baseIXT_EXT0_EXleT_Li64EEE(%struct.ap_range_ref* %3, %struct.ap_int_base* %16), !dbg !7881 ; [#uses=0 type=%struct.ap_range_ref*] [debug line = 71:2]
  %18 = load %struct.stream_packet** %2, align 8, !dbg !7883 ; [#uses=1 type=%struct.stream_packet*] [debug line = 72:2]
  %19 = getelementptr inbounds %struct.stream_packet* %18, i32 0, i32 0, !dbg !7883 ; [#uses=1 type=%struct.ap_uint.9*] [debug line = 72:2]
  %20 = bitcast %struct.ap_uint.9* %19 to %struct.ap_int_base.10*, !dbg !7883 ; [#uses=1 type=%struct.ap_int_base.10*] [debug line = 72:2]
  call void @_ZN11ap_int_baseILi64ELb0ELb1EEclEii(%struct.ap_range_ref* sret %4, %struct.ap_int_base.10* %20, i32 15, i32 8), !dbg !7883 ; [debug line = 72:2]
  %21 = load %struct.envelope** %1, align 8, !dbg !7883 ; [#uses=1 type=%struct.envelope*] [debug line = 72:2]
  %22 = getelementptr inbounds %struct.envelope* %21, i32 0, i32 1, !dbg !7883 ; [#uses=1 type=%struct.ap_uint*] [debug line = 72:2]
  %23 = bitcast %struct.ap_uint* %22 to %struct.ap_int_base*, !dbg !7883 ; [#uses=1 type=%struct.ap_int_base*] [debug line = 72:2]
  %24 = call %struct.ap_range_ref* @_ZN12ap_range_refILi64ELb0EEaSILi8ELb0EEERS0_RK11ap_int_baseIXT_EXT0_EXleT_Li64EEE(%struct.ap_range_ref* %4, %struct.ap_int_base* %23), !dbg !7883 ; [#uses=0 type=%struct.ap_range_ref*] [debug line = 72:2]
  %25 = load %struct.stream_packet** %2, align 8, !dbg !7884 ; [#uses=1 type=%struct.stream_packet*] [debug line = 73:2]
  %26 = getelementptr inbounds %struct.stream_packet* %25, i32 0, i32 0, !dbg !7884 ; [#uses=1 type=%struct.ap_uint.9*] [debug line = 73:2]
  %27 = bitcast %struct.ap_uint.9* %26 to %struct.ap_int_base.10*, !dbg !7884 ; [#uses=1 type=%struct.ap_int_base.10*] [debug line = 73:2]
  call void @_ZN11ap_int_baseILi64ELb0ELb1EEclEii(%struct.ap_range_ref* sret %5, %struct.ap_int_base.10* %27, i32 47, i32 16), !dbg !7884 ; [debug line = 73:2]
  %28 = load %struct.envelope** %1, align 8, !dbg !7884 ; [#uses=1 type=%struct.envelope*] [debug line = 73:2]
  %29 = getelementptr inbounds %struct.envelope* %28, i32 0, i32 2, !dbg !7884 ; [#uses=1 type=%struct.ap_uint.0*] [debug line = 73:2]
  %30 = bitcast %struct.ap_uint.0* %29 to %struct.ap_int_base.1*, !dbg !7884 ; [#uses=1 type=%struct.ap_int_base.1*] [debug line = 73:2]
  %31 = call %struct.ap_range_ref* @_ZN12ap_range_refILi64ELb0EEaSILi32ELb0EEERS0_RK11ap_int_baseIXT_EXT0_EXleT_Li64EEE(%struct.ap_range_ref* %5, %struct.ap_int_base.1* %30), !dbg !7884 ; [#uses=0 type=%struct.ap_range_ref*] [debug line = 73:2]
  %32 = load %struct.stream_packet** %2, align 8, !dbg !7885 ; [#uses=1 type=%struct.stream_packet*] [debug line = 74:2]
  %33 = getelementptr inbounds %struct.stream_packet* %32, i32 0, i32 0, !dbg !7885 ; [#uses=1 type=%struct.ap_uint.9*] [debug line = 74:2]
  %34 = bitcast %struct.ap_uint.9* %33 to %struct.ap_int_base.10*, !dbg !7885 ; [#uses=1 type=%struct.ap_int_base.10*] [debug line = 74:2]
  call void @_ZN11ap_int_baseILi64ELb0ELb1EEclEii(%struct.ap_range_ref* sret %6, %struct.ap_int_base.10* %34, i32 55, i32 48), !dbg !7885 ; [debug line = 74:2]
  %35 = load %struct.envelope** %1, align 8, !dbg !7885 ; [#uses=1 type=%struct.envelope*] [debug line = 74:2]
  %36 = getelementptr inbounds %struct.envelope* %35, i32 0, i32 3, !dbg !7885 ; [#uses=1 type=%struct.ap_uint*] [debug line = 74:2]
  %37 = bitcast %struct.ap_uint* %36 to %struct.ap_int_base*, !dbg !7885 ; [#uses=1 type=%struct.ap_int_base*] [debug line = 74:2]
  %38 = call %struct.ap_range_ref* @_ZN12ap_range_refILi64ELb0EEaSILi8ELb0EEERS0_RK11ap_int_baseIXT_EXT0_EXleT_Li64EEE(%struct.ap_range_ref* %6, %struct.ap_int_base* %37), !dbg !7885 ; [#uses=0 type=%struct.ap_range_ref*] [debug line = 74:2]
  %39 = load %struct.stream_packet** %2, align 8, !dbg !7886 ; [#uses=1 type=%struct.stream_packet*] [debug line = 75:2]
  %40 = getelementptr inbounds %struct.stream_packet* %39, i32 0, i32 0, !dbg !7886 ; [#uses=1 type=%struct.ap_uint.9*] [debug line = 75:2]
  %41 = bitcast %struct.ap_uint.9* %40 to %struct.ap_int_base.10*, !dbg !7886 ; [#uses=1 type=%struct.ap_int_base.10*] [debug line = 75:2]
  call void @_ZN11ap_int_baseILi64ELb0ELb1EEclEii(%struct.ap_range_ref* sret %7, %struct.ap_int_base.10* %41, i32 59, i32 56), !dbg !7886 ; [debug line = 75:2]
  %42 = load %struct.envelope** %1, align 8, !dbg !7886 ; [#uses=1 type=%struct.envelope*] [debug line = 75:2]
  %43 = getelementptr inbounds %struct.envelope* %42, i32 0, i32 4, !dbg !7886 ; [#uses=1 type=%struct.ap_uint.3*] [debug line = 75:2]
  %44 = bitcast %struct.ap_uint.3* %43 to %struct.ap_int_base.4*, !dbg !7886 ; [#uses=1 type=%struct.ap_int_base.4*] [debug line = 75:2]
  %45 = call %struct.ap_range_ref* @_ZN12ap_range_refILi64ELb0EEaSILi4ELb0EEERS0_RK11ap_int_baseIXT_EXT0_EXleT_Li64EEE(%struct.ap_range_ref* %7, %struct.ap_int_base.4* %44), !dbg !7886 ; [#uses=0 type=%struct.ap_range_ref*] [debug line = 75:2]
  %46 = load %struct.stream_packet** %2, align 8, !dbg !7887 ; [#uses=1 type=%struct.stream_packet*] [debug line = 76:2]
  %47 = getelementptr inbounds %struct.stream_packet* %46, i32 0, i32 0, !dbg !7887 ; [#uses=1 type=%struct.ap_uint.9*] [debug line = 76:2]
  %48 = bitcast %struct.ap_uint.9* %47 to %struct.ap_int_base.10*, !dbg !7887 ; [#uses=1 type=%struct.ap_int_base.10*] [debug line = 76:2]
  call void @_ZN11ap_int_baseILi64ELb0ELb1EEclEii(%struct.ap_range_ref* sret %8, %struct.ap_int_base.10* %48, i32 63, i32 60), !dbg !7887 ; [debug line = 76:2]
  %49 = load %struct.envelope** %1, align 8, !dbg !7887 ; [#uses=1 type=%struct.envelope*] [debug line = 76:2]
  %50 = getelementptr inbounds %struct.envelope* %49, i32 0, i32 5, !dbg !7887 ; [#uses=1 type=%struct.ap_uint.3*] [debug line = 76:2]
  %51 = bitcast %struct.ap_uint.3* %50 to %struct.ap_int_base.4*, !dbg !7887 ; [#uses=1 type=%struct.ap_int_base.4*] [debug line = 76:2]
  %52 = call %struct.ap_range_ref* @_ZN12ap_range_refILi64ELb0EEaSILi4ELb0EEERS0_RK11ap_int_baseIXT_EXT0_EXleT_Li64EEE(%struct.ap_range_ref* %8, %struct.ap_int_base.4* %51), !dbg !7887 ; [#uses=0 type=%struct.ap_range_ref*] [debug line = 76:2]
  %53 = load %struct.stream_packet** %2, align 8, !dbg !7888 ; [#uses=1 type=%struct.stream_packet*] [debug line = 77:2]
  %54 = getelementptr inbounds %struct.stream_packet* %53, i32 0, i32 1, !dbg !7888 ; [#uses=1 type=%struct.ap_uint*] [debug line = 77:2]
  %55 = load %struct.envelope** %1, align 8, !dbg !7888 ; [#uses=1 type=%struct.envelope*] [debug line = 77:2]
  %56 = getelementptr inbounds %struct.envelope* %55, i32 0, i32 6, !dbg !7888 ; [#uses=1 type=%struct.ap_uint.6*] [debug line = 77:2]
  call void @_ZN7ap_uintILi8EEC1ILi16EEERKS_IXT_EE(%struct.ap_uint* %9, %struct.ap_uint.6* %56), !dbg !7888 ; [debug line = 77:2]
  %57 = call %struct.ap_uint* @_ZN7ap_uintILi8EEaSERKS0_(%struct.ap_uint* %54, %struct.ap_uint* %9), !dbg !7888 ; [#uses=0 type=%struct.ap_uint*] [debug line = 77:2]
  %58 = load %struct.stream_packet** %2, align 8, !dbg !7889 ; [#uses=1 type=%struct.stream_packet*] [debug line = 78:2]
  %59 = getelementptr inbounds %struct.stream_packet* %58, i32 0, i32 3, !dbg !7889 ; [#uses=1 type=%struct.ap_uint*] [debug line = 78:2]
  %60 = load %struct.envelope** %1, align 8, !dbg !7889 ; [#uses=1 type=%struct.envelope*] [debug line = 78:2]
  %61 = getelementptr inbounds %struct.envelope* %60, i32 0, i32 0, !dbg !7889 ; [#uses=1 type=%struct.ap_uint*] [debug line = 78:2]
  %62 = call %struct.ap_uint* @_ZN7ap_uintILi8EEaSERKS0_(%struct.ap_uint* %59, %struct.ap_uint* %61), !dbg !7889 ; [#uses=0 type=%struct.ap_uint*] [debug line = 78:2]
  %63 = load %struct.stream_packet** %2, align 8, !dbg !7890 ; [#uses=1 type=%struct.stream_packet*] [debug line = 79:2]
  %64 = getelementptr inbounds %struct.stream_packet* %63, i32 0, i32 2, !dbg !7890 ; [#uses=1 type=%struct.ap_uint.12*] [debug line = 79:2]
  call void @_ZN7ap_uintILi1EEC1Ei(%struct.ap_uint.12* %10, i32 1), !dbg !7890 ; [debug line = 79:2]
  %65 = call %struct.ap_uint.12* @_ZN7ap_uintILi1EEaSERKS0_(%struct.ap_uint.12* %64, %struct.ap_uint.12* %10), !dbg !7890 ; [#uses=0 type=%struct.ap_uint.12*] [debug line = 79:2]
  ret void, !dbg !7891                            ; [debug line = 80:1]
}

; [#uses=531]
declare void @llvm.dbg.declare(metadata, metadata) nounwind readnone

; [#uses=18]
define linkonce_odr void @_ZN11ap_int_baseILi64ELb0ELb1EEclEii(%struct.ap_range_ref* noalias sret %agg.result, %struct.ap_int_base.10* %this, i32 %Hi, i32 %Lo) nounwind uwtable inlinehint alwaysinline align 2 {
  %1 = alloca %struct.ap_int_base.10*, align 8    ; [#uses=2 type=%struct.ap_int_base.10**]
  %2 = alloca i32, align 4                        ; [#uses=2 type=i32*]
  %3 = alloca i32, align 4                        ; [#uses=2 type=i32*]
  store %struct.ap_int_base.10* %this, %struct.ap_int_base.10** %1, align 8
  call void @llvm.dbg.declare(metadata !{%struct.ap_int_base.10** %1}, metadata !7892), !dbg !7893 ; [debug line = 2013:5] [debug variable = this]
  store i32 %Hi, i32* %2, align 4
  call void @llvm.dbg.declare(metadata !{i32* %2}, metadata !7894), !dbg !7895 ; [debug line = 2013:22] [debug variable = Hi]
  store i32 %Lo, i32* %3, align 4
  call void @llvm.dbg.declare(metadata !{i32* %3}, metadata !7896), !dbg !7897 ; [debug line = 2013:30] [debug variable = Lo]
  %4 = load %struct.ap_int_base.10** %1           ; [#uses=1 type=%struct.ap_int_base.10*]
  %5 = load i32* %2, align 4, !dbg !7898          ; [#uses=1 type=i32] [debug line = 2015:9]
  %6 = load i32* %3, align 4, !dbg !7898          ; [#uses=1 type=i32] [debug line = 2015:9]
  call void @_ZN12ap_range_refILi64ELb0EEC1EP11ap_int_baseILi64ELb0ELb1EEii(%struct.ap_range_ref* %agg.result, %struct.ap_int_base.10* %4, i32 %5, i32 %6), !dbg !7898 ; [debug line = 2015:9]
  ret void, !dbg !7898                            ; [debug line = 2015:9]
}

; [#uses=3]
define linkonce_odr %struct.ap_range_ref* @_ZN12ap_range_refILi64ELb0EEaSILi8ELb0EEERS0_RK11ap_int_baseIXT_EXT0_EXleT_Li64EEE(%struct.ap_range_ref* %this, %struct.ap_int_base* %val) nounwind uwtable inlinehint alwaysinline align 2 {
  %1 = alloca %struct.ap_range_ref*, align 8      ; [#uses=2 type=%struct.ap_range_ref**]
  %2 = alloca %struct.ap_int_base*, align 8       ; [#uses=2 type=%struct.ap_int_base**]
  %loc = alloca %struct.ap_int_base.10, align 8   ; [#uses=2 type=%struct.ap_int_base.10*]
  %__Result__ = alloca i64, align 8               ; [#uses=4 type=i64*]
  %__Val2__ = alloca i64, align 8                 ; [#uses=3 type=i64*]
  %__Repl2__ = alloca i64, align 8                ; [#uses=3 type=i64*]
  store %struct.ap_range_ref* %this, %struct.ap_range_ref** %1, align 8
  call void @llvm.dbg.declare(metadata !{%struct.ap_range_ref** %1}, metadata !7900), !dbg !7902 ; [debug line = 955:57] [debug variable = this]
  store %struct.ap_int_base* %val, %struct.ap_int_base** %2, align 8
  call void @llvm.dbg.declare(metadata !{%struct.ap_int_base** %2}, metadata !7903), !dbg !7904 ; [debug line = 955:103] [debug variable = val]
  %3 = load %struct.ap_range_ref** %1             ; [#uses=5 type=%struct.ap_range_ref*]
  call void @llvm.dbg.declare(metadata !{%struct.ap_int_base.10* %loc}, metadata !7905), !dbg !7907 ; [debug line = 956:35] [debug variable = loc]
  %4 = load %struct.ap_int_base** %2, align 8, !dbg !7908 ; [#uses=1 type=%struct.ap_int_base*] [debug line = 956:43]
  call void @_ZN11ap_int_baseILi64ELb0ELb1EEC1ILi8ELb0EEERKS_IXT_EXT0_EXleT_Li64EEE(%struct.ap_int_base.10* %loc, %struct.ap_int_base* %4), !dbg !7908 ; [debug line = 956:43]
  call void @llvm.dbg.declare(metadata !{i64* %__Result__}, metadata !7909), !dbg !7911 ; [debug line = 957:36] [debug variable = __Result__]
  store i64 0, i64* %__Result__, align 8, !dbg !7912 ; [debug line = 957:50]
  call void @llvm.dbg.declare(metadata !{i64* %__Val2__}, metadata !7913), !dbg !7914 ; [debug line = 957:67] [debug variable = __Val2__]
  %5 = getelementptr inbounds %struct.ap_range_ref* %3, i32 0, i32 0, !dbg !7915 ; [#uses=1 type=%struct.ap_int_base.10**] [debug line = 957:84]
  %6 = load %struct.ap_int_base.10** %5, align 8, !dbg !7915 ; [#uses=1 type=%struct.ap_int_base.10*] [debug line = 957:84]
  %7 = bitcast %struct.ap_int_base.10* %6 to %struct.ssdm_int.11*, !dbg !7915 ; [#uses=1 type=%struct.ssdm_int.11*] [debug line = 957:84]
  %8 = getelementptr inbounds %struct.ssdm_int.11* %7, i32 0, i32 0, !dbg !7915 ; [#uses=1 type=i64*] [debug line = 957:84]
  %9 = load i64* %8, align 8, !dbg !7915          ; [#uses=1 type=i64] [debug line = 957:84]
  store i64 %9, i64* %__Val2__, align 8, !dbg !7915 ; [debug line = 957:84]
  call void @llvm.dbg.declare(metadata !{i64* %__Repl2__}, metadata !7916), !dbg !7917 ; [debug line = 957:100] [debug variable = __Repl2__]
  %10 = bitcast %struct.ap_int_base.10* %loc to %struct.ssdm_int.11*, !dbg !7918 ; [#uses=1 type=%struct.ssdm_int.11*] [debug line = 957:117]
  %11 = getelementptr inbounds %struct.ssdm_int.11* %10, i32 0, i32 0, !dbg !7918 ; [#uses=1 type=i64*] [debug line = 957:117]
  %12 = load i64* %11, align 8, !dbg !7918        ; [#uses=1 type=i64] [debug line = 957:117]
  store i64 %12, i64* %__Repl2__, align 8, !dbg !7918 ; [debug line = 957:117]
  %13 = bitcast i64* %__Result__ to i8*, !dbg !7919 ; [#uses=0 type=i8*] [debug line = 957:119]
  %14 = bitcast i64* %__Val2__ to i8*, !dbg !7919 ; [#uses=0 type=i8*] [debug line = 957:119]
  %15 = bitcast i64* %__Repl2__ to i8*, !dbg !7919 ; [#uses=0 type=i8*] [debug line = 957:119]
  %16 = getelementptr inbounds %struct.ap_range_ref* %3, i32 0, i32 1, !dbg !7919 ; [#uses=1 type=i32*] [debug line = 957:119]
  %17 = load i32* %16, align 4, !dbg !7919        ; [#uses=1 type=i32] [debug line = 957:119]
  %18 = getelementptr inbounds %struct.ap_range_ref* %3, i32 0, i32 2, !dbg !7919 ; [#uses=1 type=i32*] [debug line = 957:119]
  %19 = load i32* %18, align 4, !dbg !7919        ; [#uses=1 type=i32] [debug line = 957:119]
  %20 = load i64* %__Val2__, !dbg !7919           ; [#uses=1 type=i64] [debug line = 957:119]
  %21 = load i64* %__Repl2__, !dbg !7919          ; [#uses=1 type=i64] [debug line = 957:119]
  %22 = call i64 @llvm.part.set.i64.i64(i64 %20, i64 %21, i32 %17, i32 %19), !dbg !7919 ; [#uses=1 type=i64] [debug line = 957:119]
  store i64 %22, i64* %__Result__, !dbg !7919     ; [debug line = 957:119]
  %23 = load i64* %__Result__, align 8, !dbg !7919 ; [#uses=1 type=i64] [debug line = 957:119]
  %24 = getelementptr inbounds %struct.ap_range_ref* %3, i32 0, i32 0, !dbg !7920 ; [#uses=1 type=%struct.ap_int_base.10**] [debug line = 957:236]
  %25 = load %struct.ap_int_base.10** %24, align 8, !dbg !7920 ; [#uses=1 type=%struct.ap_int_base.10*] [debug line = 957:236]
  %26 = bitcast %struct.ap_int_base.10* %25 to %struct.ssdm_int.11*, !dbg !7920 ; [#uses=1 type=%struct.ssdm_int.11*] [debug line = 957:236]
  %27 = getelementptr inbounds %struct.ssdm_int.11* %26, i32 0, i32 0, !dbg !7920 ; [#uses=1 type=i64*] [debug line = 957:236]
  store i64 %23, i64* %27, align 8, !dbg !7920    ; [debug line = 957:236]
  ret %struct.ap_range_ref* %3, !dbg !7921        ; [debug line = 958:9]
}

; [#uses=1]
define linkonce_odr %struct.ap_range_ref* @_ZN12ap_range_refILi64ELb0EEaSILi32ELb0EEERS0_RK11ap_int_baseIXT_EXT0_EXleT_Li64EEE(%struct.ap_range_ref* %this, %struct.ap_int_base.1* %val) nounwind uwtable inlinehint alwaysinline align 2 {
  %1 = alloca %struct.ap_range_ref*, align 8      ; [#uses=2 type=%struct.ap_range_ref**]
  %2 = alloca %struct.ap_int_base.1*, align 8     ; [#uses=2 type=%struct.ap_int_base.1**]
  %loc = alloca %struct.ap_int_base.10, align 8   ; [#uses=2 type=%struct.ap_int_base.10*]
  %__Result__ = alloca i64, align 8               ; [#uses=4 type=i64*]
  %__Val2__ = alloca i64, align 8                 ; [#uses=3 type=i64*]
  %__Repl2__ = alloca i64, align 8                ; [#uses=3 type=i64*]
  store %struct.ap_range_ref* %this, %struct.ap_range_ref** %1, align 8
  call void @llvm.dbg.declare(metadata !{%struct.ap_range_ref** %1}, metadata !7922), !dbg !7923 ; [debug line = 955:57] [debug variable = this]
  store %struct.ap_int_base.1* %val, %struct.ap_int_base.1** %2, align 8
  call void @llvm.dbg.declare(metadata !{%struct.ap_int_base.1** %2}, metadata !7924), !dbg !7925 ; [debug line = 955:103] [debug variable = val]
  %3 = load %struct.ap_range_ref** %1             ; [#uses=5 type=%struct.ap_range_ref*]
  call void @llvm.dbg.declare(metadata !{%struct.ap_int_base.10* %loc}, metadata !7926), !dbg !7928 ; [debug line = 956:35] [debug variable = loc]
  %4 = load %struct.ap_int_base.1** %2, align 8, !dbg !7929 ; [#uses=1 type=%struct.ap_int_base.1*] [debug line = 956:43]
  call void @_ZN11ap_int_baseILi64ELb0ELb1EEC1ILi32ELb0EEERKS_IXT_EXT0_EXleT_Li64EEE(%struct.ap_int_base.10* %loc, %struct.ap_int_base.1* %4), !dbg !7929 ; [debug line = 956:43]
  call void @llvm.dbg.declare(metadata !{i64* %__Result__}, metadata !7930), !dbg !7932 ; [debug line = 957:36] [debug variable = __Result__]
  store i64 0, i64* %__Result__, align 8, !dbg !7933 ; [debug line = 957:50]
  call void @llvm.dbg.declare(metadata !{i64* %__Val2__}, metadata !7934), !dbg !7935 ; [debug line = 957:67] [debug variable = __Val2__]
  %5 = getelementptr inbounds %struct.ap_range_ref* %3, i32 0, i32 0, !dbg !7936 ; [#uses=1 type=%struct.ap_int_base.10**] [debug line = 957:84]
  %6 = load %struct.ap_int_base.10** %5, align 8, !dbg !7936 ; [#uses=1 type=%struct.ap_int_base.10*] [debug line = 957:84]
  %7 = bitcast %struct.ap_int_base.10* %6 to %struct.ssdm_int.11*, !dbg !7936 ; [#uses=1 type=%struct.ssdm_int.11*] [debug line = 957:84]
  %8 = getelementptr inbounds %struct.ssdm_int.11* %7, i32 0, i32 0, !dbg !7936 ; [#uses=1 type=i64*] [debug line = 957:84]
  %9 = load i64* %8, align 8, !dbg !7936          ; [#uses=1 type=i64] [debug line = 957:84]
  store i64 %9, i64* %__Val2__, align 8, !dbg !7936 ; [debug line = 957:84]
  call void @llvm.dbg.declare(metadata !{i64* %__Repl2__}, metadata !7937), !dbg !7938 ; [debug line = 957:100] [debug variable = __Repl2__]
  %10 = bitcast %struct.ap_int_base.10* %loc to %struct.ssdm_int.11*, !dbg !7939 ; [#uses=1 type=%struct.ssdm_int.11*] [debug line = 957:117]
  %11 = getelementptr inbounds %struct.ssdm_int.11* %10, i32 0, i32 0, !dbg !7939 ; [#uses=1 type=i64*] [debug line = 957:117]
  %12 = load i64* %11, align 8, !dbg !7939        ; [#uses=1 type=i64] [debug line = 957:117]
  store i64 %12, i64* %__Repl2__, align 8, !dbg !7939 ; [debug line = 957:117]
  %13 = bitcast i64* %__Result__ to i8*, !dbg !7940 ; [#uses=0 type=i8*] [debug line = 957:119]
  %14 = bitcast i64* %__Val2__ to i8*, !dbg !7940 ; [#uses=0 type=i8*] [debug line = 957:119]
  %15 = bitcast i64* %__Repl2__ to i8*, !dbg !7940 ; [#uses=0 type=i8*] [debug line = 957:119]
  %16 = getelementptr inbounds %struct.ap_range_ref* %3, i32 0, i32 1, !dbg !7940 ; [#uses=1 type=i32*] [debug line = 957:119]
  %17 = load i32* %16, align 4, !dbg !7940        ; [#uses=1 type=i32] [debug line = 957:119]
  %18 = getelementptr inbounds %struct.ap_range_ref* %3, i32 0, i32 2, !dbg !7940 ; [#uses=1 type=i32*] [debug line = 957:119]
  %19 = load i32* %18, align 4, !dbg !7940        ; [#uses=1 type=i32] [debug line = 957:119]
  %20 = load i64* %__Val2__, !dbg !7940           ; [#uses=1 type=i64] [debug line = 957:119]
  %21 = load i64* %__Repl2__, !dbg !7940          ; [#uses=1 type=i64] [debug line = 957:119]
  %22 = call i64 @llvm.part.set.i64.i64(i64 %20, i64 %21, i32 %17, i32 %19), !dbg !7940 ; [#uses=1 type=i64] [debug line = 957:119]
  store i64 %22, i64* %__Result__, !dbg !7940     ; [debug line = 957:119]
  %23 = load i64* %__Result__, align 8, !dbg !7940 ; [#uses=1 type=i64] [debug line = 957:119]
  %24 = getelementptr inbounds %struct.ap_range_ref* %3, i32 0, i32 0, !dbg !7941 ; [#uses=1 type=%struct.ap_int_base.10**] [debug line = 957:236]
  %25 = load %struct.ap_int_base.10** %24, align 8, !dbg !7941 ; [#uses=1 type=%struct.ap_int_base.10*] [debug line = 957:236]
  %26 = bitcast %struct.ap_int_base.10* %25 to %struct.ssdm_int.11*, !dbg !7941 ; [#uses=1 type=%struct.ssdm_int.11*] [debug line = 957:236]
  %27 = getelementptr inbounds %struct.ssdm_int.11* %26, i32 0, i32 0, !dbg !7941 ; [#uses=1 type=i64*] [debug line = 957:236]
  store i64 %23, i64* %27, align 8, !dbg !7941    ; [debug line = 957:236]
  ret %struct.ap_range_ref* %3, !dbg !7942        ; [debug line = 958:9]
}

; [#uses=2]
define linkonce_odr %struct.ap_range_ref* @_ZN12ap_range_refILi64ELb0EEaSILi4ELb0EEERS0_RK11ap_int_baseIXT_EXT0_EXleT_Li64EEE(%struct.ap_range_ref* %this, %struct.ap_int_base.4* %val) nounwind uwtable inlinehint alwaysinline align 2 {
  %1 = alloca %struct.ap_range_ref*, align 8      ; [#uses=2 type=%struct.ap_range_ref**]
  %2 = alloca %struct.ap_int_base.4*, align 8     ; [#uses=2 type=%struct.ap_int_base.4**]
  %loc = alloca %struct.ap_int_base.10, align 8   ; [#uses=2 type=%struct.ap_int_base.10*]
  %__Result__ = alloca i64, align 8               ; [#uses=4 type=i64*]
  %__Val2__ = alloca i64, align 8                 ; [#uses=3 type=i64*]
  %__Repl2__ = alloca i64, align 8                ; [#uses=3 type=i64*]
  store %struct.ap_range_ref* %this, %struct.ap_range_ref** %1, align 8
  call void @llvm.dbg.declare(metadata !{%struct.ap_range_ref** %1}, metadata !7943), !dbg !7944 ; [debug line = 955:57] [debug variable = this]
  store %struct.ap_int_base.4* %val, %struct.ap_int_base.4** %2, align 8
  call void @llvm.dbg.declare(metadata !{%struct.ap_int_base.4** %2}, metadata !7945), !dbg !7946 ; [debug line = 955:103] [debug variable = val]
  %3 = load %struct.ap_range_ref** %1             ; [#uses=5 type=%struct.ap_range_ref*]
  call void @llvm.dbg.declare(metadata !{%struct.ap_int_base.10* %loc}, metadata !7947), !dbg !7949 ; [debug line = 956:35] [debug variable = loc]
  %4 = load %struct.ap_int_base.4** %2, align 8, !dbg !7950 ; [#uses=1 type=%struct.ap_int_base.4*] [debug line = 956:43]
  call void @_ZN11ap_int_baseILi64ELb0ELb1EEC1ILi4ELb0EEERKS_IXT_EXT0_EXleT_Li64EEE(%struct.ap_int_base.10* %loc, %struct.ap_int_base.4* %4), !dbg !7950 ; [debug line = 956:43]
  call void @llvm.dbg.declare(metadata !{i64* %__Result__}, metadata !7951), !dbg !7953 ; [debug line = 957:36] [debug variable = __Result__]
  store i64 0, i64* %__Result__, align 8, !dbg !7954 ; [debug line = 957:50]
  call void @llvm.dbg.declare(metadata !{i64* %__Val2__}, metadata !7955), !dbg !7956 ; [debug line = 957:67] [debug variable = __Val2__]
  %5 = getelementptr inbounds %struct.ap_range_ref* %3, i32 0, i32 0, !dbg !7957 ; [#uses=1 type=%struct.ap_int_base.10**] [debug line = 957:84]
  %6 = load %struct.ap_int_base.10** %5, align 8, !dbg !7957 ; [#uses=1 type=%struct.ap_int_base.10*] [debug line = 957:84]
  %7 = bitcast %struct.ap_int_base.10* %6 to %struct.ssdm_int.11*, !dbg !7957 ; [#uses=1 type=%struct.ssdm_int.11*] [debug line = 957:84]
  %8 = getelementptr inbounds %struct.ssdm_int.11* %7, i32 0, i32 0, !dbg !7957 ; [#uses=1 type=i64*] [debug line = 957:84]
  %9 = load i64* %8, align 8, !dbg !7957          ; [#uses=1 type=i64] [debug line = 957:84]
  store i64 %9, i64* %__Val2__, align 8, !dbg !7957 ; [debug line = 957:84]
  call void @llvm.dbg.declare(metadata !{i64* %__Repl2__}, metadata !7958), !dbg !7959 ; [debug line = 957:100] [debug variable = __Repl2__]
  %10 = bitcast %struct.ap_int_base.10* %loc to %struct.ssdm_int.11*, !dbg !7960 ; [#uses=1 type=%struct.ssdm_int.11*] [debug line = 957:117]
  %11 = getelementptr inbounds %struct.ssdm_int.11* %10, i32 0, i32 0, !dbg !7960 ; [#uses=1 type=i64*] [debug line = 957:117]
  %12 = load i64* %11, align 8, !dbg !7960        ; [#uses=1 type=i64] [debug line = 957:117]
  store i64 %12, i64* %__Repl2__, align 8, !dbg !7960 ; [debug line = 957:117]
  %13 = bitcast i64* %__Result__ to i8*, !dbg !7961 ; [#uses=0 type=i8*] [debug line = 957:119]
  %14 = bitcast i64* %__Val2__ to i8*, !dbg !7961 ; [#uses=0 type=i8*] [debug line = 957:119]
  %15 = bitcast i64* %__Repl2__ to i8*, !dbg !7961 ; [#uses=0 type=i8*] [debug line = 957:119]
  %16 = getelementptr inbounds %struct.ap_range_ref* %3, i32 0, i32 1, !dbg !7961 ; [#uses=1 type=i32*] [debug line = 957:119]
  %17 = load i32* %16, align 4, !dbg !7961        ; [#uses=1 type=i32] [debug line = 957:119]
  %18 = getelementptr inbounds %struct.ap_range_ref* %3, i32 0, i32 2, !dbg !7961 ; [#uses=1 type=i32*] [debug line = 957:119]
  %19 = load i32* %18, align 4, !dbg !7961        ; [#uses=1 type=i32] [debug line = 957:119]
  %20 = load i64* %__Val2__, !dbg !7961           ; [#uses=1 type=i64] [debug line = 957:119]
  %21 = load i64* %__Repl2__, !dbg !7961          ; [#uses=1 type=i64] [debug line = 957:119]
  %22 = call i64 @llvm.part.set.i64.i64(i64 %20, i64 %21, i32 %17, i32 %19), !dbg !7961 ; [#uses=1 type=i64] [debug line = 957:119]
  store i64 %22, i64* %__Result__, !dbg !7961     ; [debug line = 957:119]
  %23 = load i64* %__Result__, align 8, !dbg !7961 ; [#uses=1 type=i64] [debug line = 957:119]
  %24 = getelementptr inbounds %struct.ap_range_ref* %3, i32 0, i32 0, !dbg !7962 ; [#uses=1 type=%struct.ap_int_base.10**] [debug line = 957:236]
  %25 = load %struct.ap_int_base.10** %24, align 8, !dbg !7962 ; [#uses=1 type=%struct.ap_int_base.10*] [debug line = 957:236]
  %26 = bitcast %struct.ap_int_base.10* %25 to %struct.ssdm_int.11*, !dbg !7962 ; [#uses=1 type=%struct.ssdm_int.11*] [debug line = 957:236]
  %27 = getelementptr inbounds %struct.ssdm_int.11* %26, i32 0, i32 0, !dbg !7962 ; [#uses=1 type=i64*] [debug line = 957:236]
  store i64 %23, i64* %27, align 8, !dbg !7962    ; [debug line = 957:236]
  ret %struct.ap_range_ref* %3, !dbg !7963        ; [debug line = 958:9]
}

; [#uses=57]
define linkonce_odr %struct.ap_uint* @_ZN7ap_uintILi8EEaSERKS0_(%struct.ap_uint* %this, %struct.ap_uint* %op2) nounwind uwtable inlinehint alwaysinline align 2 {
  %1 = alloca %struct.ap_uint*, align 8           ; [#uses=2 type=%struct.ap_uint**]
  %2 = alloca %struct.ap_uint*, align 8           ; [#uses=2 type=%struct.ap_uint**]
  store %struct.ap_uint* %this, %struct.ap_uint** %1, align 8
  call void @llvm.dbg.declare(metadata !{%struct.ap_uint** %1}, metadata !7964), !dbg !7966 ; [debug line = 279:53] [debug variable = this]
  store %struct.ap_uint* %op2, %struct.ap_uint** %2, align 8
  call void @llvm.dbg.declare(metadata !{%struct.ap_uint** %2}, metadata !7967), !dbg !7968 ; [debug line = 279:87] [debug variable = op2]
  %3 = load %struct.ap_uint** %1                  ; [#uses=2 type=%struct.ap_uint*]
  %4 = load %struct.ap_uint** %2, align 8, !dbg !7969 ; [#uses=1 type=%struct.ap_uint*] [debug line = 280:10]
  %5 = bitcast %struct.ap_uint* %4 to %struct.ssdm_int*, !dbg !7969 ; [#uses=1 type=%struct.ssdm_int*] [debug line = 280:10]
  %6 = getelementptr inbounds %struct.ssdm_int* %5, i32 0, i32 0, !dbg !7969 ; [#uses=1 type=i8*] [debug line = 280:10]
  %7 = load i8* %6, align 1, !dbg !7969           ; [#uses=1 type=i8] [debug line = 280:10]
  %8 = bitcast %struct.ap_uint* %3 to %struct.ap_int_base*, !dbg !7969 ; [#uses=1 type=%struct.ap_int_base*] [debug line = 280:10]
  %9 = bitcast %struct.ap_int_base* %8 to %struct.ssdm_int*, !dbg !7969 ; [#uses=1 type=%struct.ssdm_int*] [debug line = 280:10]
  %10 = getelementptr inbounds %struct.ssdm_int* %9, i32 0, i32 0, !dbg !7969 ; [#uses=1 type=i8*] [debug line = 280:10]
  store i8 %7, i8* %10, align 1, !dbg !7969       ; [debug line = 280:10]
  ret %struct.ap_uint* %3, !dbg !7971             ; [debug line = 281:10]
}

; [#uses=8]
define linkonce_odr void @_ZN7ap_uintILi8EEC1ILi16EEERKS_IXT_EE(%struct.ap_uint* %this, %struct.ap_uint.6* %op) unnamed_addr nounwind uwtable inlinehint alwaysinline align 2 {
  %1 = alloca %struct.ap_uint*, align 8           ; [#uses=2 type=%struct.ap_uint**]
  %2 = alloca %struct.ap_uint.6*, align 8         ; [#uses=2 type=%struct.ap_uint.6**]
  store %struct.ap_uint* %this, %struct.ap_uint** %1, align 8
  call void @llvm.dbg.declare(metadata !{%struct.ap_uint** %1}, metadata !7972), !dbg !7973 ; [debug line = 187:43] [debug variable = this]
  store %struct.ap_uint.6* %op, %struct.ap_uint.6** %2, align 8
  call void @llvm.dbg.declare(metadata !{%struct.ap_uint.6** %2}, metadata !7974), !dbg !7975 ; [debug line = 187:74] [debug variable = op]
  %3 = load %struct.ap_uint** %1                  ; [#uses=1 type=%struct.ap_uint*]
  %4 = load %struct.ap_uint.6** %2, !dbg !7976    ; [#uses=1 type=%struct.ap_uint.6*] [debug line = 187:96]
  call void @_ZN7ap_uintILi8EEC2ILi16EEERKS_IXT_EE(%struct.ap_uint* %3, %struct.ap_uint.6* %4), !dbg !7976 ; [debug line = 187:96]
  ret void, !dbg !7976                            ; [debug line = 187:96]
}

; [#uses=50]
define linkonce_odr %struct.ap_uint.12* @_ZN7ap_uintILi1EEaSERKS0_(%struct.ap_uint.12* %this, %struct.ap_uint.12* %op2) nounwind uwtable inlinehint alwaysinline align 2 {
  %1 = alloca %struct.ap_uint.12*, align 8        ; [#uses=2 type=%struct.ap_uint.12**]
  %2 = alloca %struct.ap_uint.12*, align 8        ; [#uses=2 type=%struct.ap_uint.12**]
  store %struct.ap_uint.12* %this, %struct.ap_uint.12** %1, align 8
  call void @llvm.dbg.declare(metadata !{%struct.ap_uint.12** %1}, metadata !7977), !dbg !7979 ; [debug line = 279:53] [debug variable = this]
  store %struct.ap_uint.12* %op2, %struct.ap_uint.12** %2, align 8
  call void @llvm.dbg.declare(metadata !{%struct.ap_uint.12** %2}, metadata !7980), !dbg !7981 ; [debug line = 279:87] [debug variable = op2]
  %3 = load %struct.ap_uint.12** %1               ; [#uses=2 type=%struct.ap_uint.12*]
  %4 = load %struct.ap_uint.12** %2, align 8, !dbg !7982 ; [#uses=1 type=%struct.ap_uint.12*] [debug line = 280:10]
  %5 = bitcast %struct.ap_uint.12* %4 to %struct.ssdm_int.14*, !dbg !7982 ; [#uses=1 type=%struct.ssdm_int.14*] [debug line = 280:10]
  %6 = getelementptr inbounds %struct.ssdm_int.14* %5, i32 0, i32 0, !dbg !7982 ; [#uses=1 type=i1*] [debug line = 280:10]
  %7 = load i1* %6, align 1, !dbg !7982           ; [#uses=1 type=i1] [debug line = 280:10]
  %8 = bitcast %struct.ap_uint.12* %3 to %struct.ap_int_base.13*, !dbg !7982 ; [#uses=1 type=%struct.ap_int_base.13*] [debug line = 280:10]
  %9 = bitcast %struct.ap_int_base.13* %8 to %struct.ssdm_int.14*, !dbg !7982 ; [#uses=1 type=%struct.ssdm_int.14*] [debug line = 280:10]
  %10 = getelementptr inbounds %struct.ssdm_int.14* %9, i32 0, i32 0, !dbg !7982 ; [#uses=1 type=i1*] [debug line = 280:10]
  store i1 %7, i1* %10, align 1, !dbg !7982       ; [debug line = 280:10]
  ret %struct.ap_uint.12* %3, !dbg !7984          ; [debug line = 281:10]
}

; [#uses=33]
define linkonce_odr void @_ZN7ap_uintILi1EEC1Ei(%struct.ap_uint.12* %this, i32 %val) unnamed_addr nounwind uwtable inlinehint alwaysinline align 2 {
  %1 = alloca %struct.ap_uint.12*, align 8        ; [#uses=2 type=%struct.ap_uint.12**]
  %2 = alloca i32, align 4                        ; [#uses=2 type=i32*]
  store %struct.ap_uint.12* %this, %struct.ap_uint.12** %1, align 8
  call void @llvm.dbg.declare(metadata !{%struct.ap_uint.12** %1}, metadata !7985), !dbg !7986 ; [debug line = 252:43] [debug variable = this]
  store i32 %val, i32* %2, align 4
  call void @llvm.dbg.declare(metadata !{i32* %2}, metadata !7987), !dbg !7988 ; [debug line = 252:55] [debug variable = val]
  %3 = load %struct.ap_uint.12** %1               ; [#uses=1 type=%struct.ap_uint.12*]
  %4 = load i32* %2, align 4, !dbg !7989          ; [#uses=1 type=i32] [debug line = 252:77]
  call void @_ZN7ap_uintILi1EEC2Ei(%struct.ap_uint.12* %3, i32 %4), !dbg !7989 ; [debug line = 252:77]
  ret void, !dbg !7989                            ; [debug line = 252:77]
}

; [#uses=27]
define void @_Z18packet_to_envelopeP13stream_packetP8envelope(%struct.stream_packet* %packet, %struct.envelope* %envlp) nounwind uwtable {
  %1 = alloca %struct.stream_packet*, align 8     ; [#uses=8 type=%struct.stream_packet**]
  %2 = alloca %struct.envelope*, align 8          ; [#uses=8 type=%struct.envelope**]
  %3 = alloca %struct.ap_uint.6, align 2          ; [#uses=2 type=%struct.ap_uint.6*]
  %4 = alloca %struct.ap_uint, align 1            ; [#uses=2 type=%struct.ap_uint*]
  %5 = alloca %struct.ap_range_ref, align 8       ; [#uses=2 type=%struct.ap_range_ref*]
  %6 = alloca %struct.ap_uint, align 1            ; [#uses=2 type=%struct.ap_uint*]
  %7 = alloca %struct.ap_range_ref, align 8       ; [#uses=2 type=%struct.ap_range_ref*]
  %8 = alloca %struct.ap_uint.0, align 4          ; [#uses=2 type=%struct.ap_uint.0*]
  %9 = alloca %struct.ap_range_ref, align 8       ; [#uses=2 type=%struct.ap_range_ref*]
  %10 = alloca %struct.ap_uint, align 1           ; [#uses=2 type=%struct.ap_uint*]
  %11 = alloca %struct.ap_range_ref, align 8      ; [#uses=2 type=%struct.ap_range_ref*]
  %12 = alloca %struct.ap_uint.3, align 1         ; [#uses=2 type=%struct.ap_uint.3*]
  %13 = alloca %struct.ap_range_ref, align 8      ; [#uses=2 type=%struct.ap_range_ref*]
  %14 = alloca %struct.ap_uint.3, align 1         ; [#uses=2 type=%struct.ap_uint.3*]
  %15 = alloca %struct.ap_range_ref, align 8      ; [#uses=2 type=%struct.ap_range_ref*]
  store %struct.stream_packet* %packet, %struct.stream_packet** %1, align 8
  call void @llvm.dbg.declare(metadata !{%struct.stream_packet** %1}, metadata !7990), !dbg !7991 ; [debug line = 82:42] [debug variable = packet]
  store %struct.envelope* %envlp, %struct.envelope** %2, align 8
  call void @llvm.dbg.declare(metadata !{%struct.envelope** %2}, metadata !7992), !dbg !7993 ; [debug line = 82:61] [debug variable = envlp]
  %16 = load %struct.envelope** %2, align 8, !dbg !7994 ; [#uses=1 type=%struct.envelope*] [debug line = 83:2]
  %17 = getelementptr inbounds %struct.envelope* %16, i32 0, i32 6, !dbg !7994 ; [#uses=1 type=%struct.ap_uint.6*] [debug line = 83:2]
  %18 = load %struct.stream_packet** %1, align 8, !dbg !7994 ; [#uses=1 type=%struct.stream_packet*] [debug line = 83:2]
  %19 = getelementptr inbounds %struct.stream_packet* %18, i32 0, i32 1, !dbg !7994 ; [#uses=1 type=%struct.ap_uint*] [debug line = 83:2]
  call void @_ZN7ap_uintILi16EEC1ILi8EEERKS_IXT_EE(%struct.ap_uint.6* %3, %struct.ap_uint* %19), !dbg !7994 ; [debug line = 83:2]
  %20 = call %struct.ap_uint.6* @_ZN7ap_uintILi16EEaSERKS0_(%struct.ap_uint.6* %17, %struct.ap_uint.6* %3), !dbg !7994 ; [#uses=0 type=%struct.ap_uint.6*] [debug line = 83:2]
  %21 = load %struct.envelope** %2, align 8, !dbg !7996 ; [#uses=1 type=%struct.envelope*] [debug line = 84:2]
  %22 = getelementptr inbounds %struct.envelope* %21, i32 0, i32 0, !dbg !7996 ; [#uses=1 type=%struct.ap_uint*] [debug line = 84:2]
  %23 = load %struct.stream_packet** %1, align 8, !dbg !7997 ; [#uses=1 type=%struct.stream_packet*] [debug line = 84:13]
  %24 = getelementptr inbounds %struct.stream_packet* %23, i32 0, i32 0, !dbg !7997 ; [#uses=1 type=%struct.ap_uint.9*] [debug line = 84:13]
  %25 = bitcast %struct.ap_uint.9* %24 to %struct.ap_int_base.10*, !dbg !7997 ; [#uses=1 type=%struct.ap_int_base.10*] [debug line = 84:13]
  call void @_ZN11ap_int_baseILi64ELb0ELb1EEclEii(%struct.ap_range_ref* sret %5, %struct.ap_int_base.10* %25, i32 7, i32 0), !dbg !7997 ; [debug line = 84:13]
  call void @_ZN7ap_uintILi8EEC1ILi64ELb0EEERK12ap_range_refIXT_EXT0_EE(%struct.ap_uint* %4, %struct.ap_range_ref* %5), !dbg !7997 ; [debug line = 84:13]
  %26 = call %struct.ap_uint* @_ZN7ap_uintILi8EEaSERKS0_(%struct.ap_uint* %22, %struct.ap_uint* %4), !dbg !7997 ; [#uses=0 type=%struct.ap_uint*] [debug line = 84:13]
  %27 = load %struct.envelope** %2, align 8, !dbg !7998 ; [#uses=1 type=%struct.envelope*] [debug line = 85:2]
  %28 = getelementptr inbounds %struct.envelope* %27, i32 0, i32 1, !dbg !7998 ; [#uses=1 type=%struct.ap_uint*] [debug line = 85:2]
  %29 = load %struct.stream_packet** %1, align 8, !dbg !7999 ; [#uses=1 type=%struct.stream_packet*] [debug line = 85:18]
  %30 = getelementptr inbounds %struct.stream_packet* %29, i32 0, i32 0, !dbg !7999 ; [#uses=1 type=%struct.ap_uint.9*] [debug line = 85:18]
  %31 = bitcast %struct.ap_uint.9* %30 to %struct.ap_int_base.10*, !dbg !7999 ; [#uses=1 type=%struct.ap_int_base.10*] [debug line = 85:18]
  call void @_ZN11ap_int_baseILi64ELb0ELb1EEclEii(%struct.ap_range_ref* sret %7, %struct.ap_int_base.10* %31, i32 15, i32 8), !dbg !7999 ; [debug line = 85:18]
  call void @_ZN7ap_uintILi8EEC1ILi64ELb0EEERK12ap_range_refIXT_EXT0_EE(%struct.ap_uint* %6, %struct.ap_range_ref* %7), !dbg !7999 ; [debug line = 85:18]
  %32 = call %struct.ap_uint* @_ZN7ap_uintILi8EEaSERKS0_(%struct.ap_uint* %28, %struct.ap_uint* %6), !dbg !7999 ; [#uses=0 type=%struct.ap_uint*] [debug line = 85:18]
  %33 = load %struct.envelope** %2, align 8, !dbg !8000 ; [#uses=1 type=%struct.envelope*] [debug line = 86:2]
  %34 = getelementptr inbounds %struct.envelope* %33, i32 0, i32 2, !dbg !8000 ; [#uses=1 type=%struct.ap_uint.0*] [debug line = 86:2]
  %35 = load %struct.stream_packet** %1, align 8, !dbg !8001 ; [#uses=1 type=%struct.stream_packet*] [debug line = 86:18]
  %36 = getelementptr inbounds %struct.stream_packet* %35, i32 0, i32 0, !dbg !8001 ; [#uses=1 type=%struct.ap_uint.9*] [debug line = 86:18]
  %37 = bitcast %struct.ap_uint.9* %36 to %struct.ap_int_base.10*, !dbg !8001 ; [#uses=1 type=%struct.ap_int_base.10*] [debug line = 86:18]
  call void @_ZN11ap_int_baseILi64ELb0ELb1EEclEii(%struct.ap_range_ref* sret %9, %struct.ap_int_base.10* %37, i32 47, i32 16), !dbg !8001 ; [debug line = 86:18]
  call void @_ZN7ap_uintILi32EEC1ILi64ELb0EEERK12ap_range_refIXT_EXT0_EE(%struct.ap_uint.0* %8, %struct.ap_range_ref* %9), !dbg !8001 ; [debug line = 86:18]
  %38 = call %struct.ap_uint.0* @_ZN7ap_uintILi32EEaSERKS0_(%struct.ap_uint.0* %34, %struct.ap_uint.0* %8), !dbg !8001 ; [#uses=0 type=%struct.ap_uint.0*] [debug line = 86:18]
  %39 = load %struct.envelope** %2, align 8, !dbg !8002 ; [#uses=1 type=%struct.envelope*] [debug line = 87:2]
  %40 = getelementptr inbounds %struct.envelope* %39, i32 0, i32 3, !dbg !8002 ; [#uses=1 type=%struct.ap_uint*] [debug line = 87:2]
  %41 = load %struct.stream_packet** %1, align 8, !dbg !8003 ; [#uses=1 type=%struct.stream_packet*] [debug line = 87:15]
  %42 = getelementptr inbounds %struct.stream_packet* %41, i32 0, i32 0, !dbg !8003 ; [#uses=1 type=%struct.ap_uint.9*] [debug line = 87:15]
  %43 = bitcast %struct.ap_uint.9* %42 to %struct.ap_int_base.10*, !dbg !8003 ; [#uses=1 type=%struct.ap_int_base.10*] [debug line = 87:15]
  call void @_ZN11ap_int_baseILi64ELb0ELb1EEclEii(%struct.ap_range_ref* sret %11, %struct.ap_int_base.10* %43, i32 55, i32 48), !dbg !8003 ; [debug line = 87:15]
  call void @_ZN7ap_uintILi8EEC1ILi64ELb0EEERK12ap_range_refIXT_EXT0_EE(%struct.ap_uint* %10, %struct.ap_range_ref* %11), !dbg !8003 ; [debug line = 87:15]
  %44 = call %struct.ap_uint* @_ZN7ap_uintILi8EEaSERKS0_(%struct.ap_uint* %40, %struct.ap_uint* %10), !dbg !8003 ; [#uses=0 type=%struct.ap_uint*] [debug line = 87:15]
  %45 = load %struct.envelope** %2, align 8, !dbg !8004 ; [#uses=1 type=%struct.envelope*] [debug line = 88:2]
  %46 = getelementptr inbounds %struct.envelope* %45, i32 0, i32 4, !dbg !8004 ; [#uses=1 type=%struct.ap_uint.3*] [debug line = 88:2]
  %47 = load %struct.stream_packet** %1, align 8, !dbg !8005 ; [#uses=1 type=%struct.stream_packet*] [debug line = 88:21]
  %48 = getelementptr inbounds %struct.stream_packet* %47, i32 0, i32 0, !dbg !8005 ; [#uses=1 type=%struct.ap_uint.9*] [debug line = 88:21]
  %49 = bitcast %struct.ap_uint.9* %48 to %struct.ap_int_base.10*, !dbg !8005 ; [#uses=1 type=%struct.ap_int_base.10*] [debug line = 88:21]
  call void @_ZN11ap_int_baseILi64ELb0ELb1EEclEii(%struct.ap_range_ref* sret %13, %struct.ap_int_base.10* %49, i32 59, i32 56), !dbg !8005 ; [debug line = 88:21]
  call void @_ZN7ap_uintILi4EEC1ILi64ELb0EEERK12ap_range_refIXT_EXT0_EE(%struct.ap_uint.3* %12, %struct.ap_range_ref* %13), !dbg !8005 ; [debug line = 88:21]
  %50 = call %struct.ap_uint.3* @_ZN7ap_uintILi4EEaSERKS0_(%struct.ap_uint.3* %46, %struct.ap_uint.3* %12), !dbg !8005 ; [#uses=0 type=%struct.ap_uint.3*] [debug line = 88:21]
  %51 = load %struct.envelope** %2, align 8, !dbg !8006 ; [#uses=1 type=%struct.envelope*] [debug line = 89:2]
  %52 = getelementptr inbounds %struct.envelope* %51, i32 0, i32 4, !dbg !8006 ; [#uses=1 type=%struct.ap_uint.3*] [debug line = 89:2]
  %53 = load %struct.stream_packet** %1, align 8, !dbg !8007 ; [#uses=1 type=%struct.stream_packet*] [debug line = 89:21]
  %54 = getelementptr inbounds %struct.stream_packet* %53, i32 0, i32 0, !dbg !8007 ; [#uses=1 type=%struct.ap_uint.9*] [debug line = 89:21]
  %55 = bitcast %struct.ap_uint.9* %54 to %struct.ap_int_base.10*, !dbg !8007 ; [#uses=1 type=%struct.ap_int_base.10*] [debug line = 89:21]
  call void @_ZN11ap_int_baseILi64ELb0ELb1EEclEii(%struct.ap_range_ref* sret %15, %struct.ap_int_base.10* %55, i32 63, i32 60), !dbg !8007 ; [debug line = 89:21]
  call void @_ZN7ap_uintILi4EEC1ILi64ELb0EEERK12ap_range_refIXT_EXT0_EE(%struct.ap_uint.3* %14, %struct.ap_range_ref* %15), !dbg !8007 ; [debug line = 89:21]
  %56 = call %struct.ap_uint.3* @_ZN7ap_uintILi4EEaSERKS0_(%struct.ap_uint.3* %52, %struct.ap_uint.3* %14), !dbg !8007 ; [#uses=0 type=%struct.ap_uint.3*] [debug line = 89:21]
  ret void, !dbg !8008                            ; [debug line = 90:1]
}

; [#uses=11]
define linkonce_odr %struct.ap_uint.6* @_ZN7ap_uintILi16EEaSERKS0_(%struct.ap_uint.6* %this, %struct.ap_uint.6* %op2) nounwind uwtable inlinehint alwaysinline align 2 {
  %1 = alloca %struct.ap_uint.6*, align 8         ; [#uses=2 type=%struct.ap_uint.6**]
  %2 = alloca %struct.ap_uint.6*, align 8         ; [#uses=2 type=%struct.ap_uint.6**]
  store %struct.ap_uint.6* %this, %struct.ap_uint.6** %1, align 8
  call void @llvm.dbg.declare(metadata !{%struct.ap_uint.6** %1}, metadata !8009), !dbg !8011 ; [debug line = 279:53] [debug variable = this]
  store %struct.ap_uint.6* %op2, %struct.ap_uint.6** %2, align 8
  call void @llvm.dbg.declare(metadata !{%struct.ap_uint.6** %2}, metadata !8012), !dbg !8013 ; [debug line = 279:87] [debug variable = op2]
  %3 = load %struct.ap_uint.6** %1                ; [#uses=2 type=%struct.ap_uint.6*]
  %4 = load %struct.ap_uint.6** %2, align 8, !dbg !8014 ; [#uses=1 type=%struct.ap_uint.6*] [debug line = 280:10]
  %5 = bitcast %struct.ap_uint.6* %4 to %struct.ssdm_int.8*, !dbg !8014 ; [#uses=1 type=%struct.ssdm_int.8*] [debug line = 280:10]
  %6 = getelementptr inbounds %struct.ssdm_int.8* %5, i32 0, i32 0, !dbg !8014 ; [#uses=1 type=i16*] [debug line = 280:10]
  %7 = load i16* %6, align 2, !dbg !8014          ; [#uses=1 type=i16] [debug line = 280:10]
  %8 = bitcast %struct.ap_uint.6* %3 to %struct.ap_int_base.7*, !dbg !8014 ; [#uses=1 type=%struct.ap_int_base.7*] [debug line = 280:10]
  %9 = bitcast %struct.ap_int_base.7* %8 to %struct.ssdm_int.8*, !dbg !8014 ; [#uses=1 type=%struct.ssdm_int.8*] [debug line = 280:10]
  %10 = getelementptr inbounds %struct.ssdm_int.8* %9, i32 0, i32 0, !dbg !8014 ; [#uses=1 type=i16*] [debug line = 280:10]
  store i16 %7, i16* %10, align 2, !dbg !8014     ; [debug line = 280:10]
  ret %struct.ap_uint.6* %3, !dbg !8016           ; [debug line = 281:10]
}

; [#uses=8]
define linkonce_odr void @_ZN7ap_uintILi16EEC1ILi8EEERKS_IXT_EE(%struct.ap_uint.6* %this, %struct.ap_uint* %op) unnamed_addr nounwind uwtable inlinehint alwaysinline align 2 {
  %1 = alloca %struct.ap_uint.6*, align 8         ; [#uses=2 type=%struct.ap_uint.6**]
  %2 = alloca %struct.ap_uint*, align 8           ; [#uses=2 type=%struct.ap_uint**]
  store %struct.ap_uint.6* %this, %struct.ap_uint.6** %1, align 8
  call void @llvm.dbg.declare(metadata !{%struct.ap_uint.6** %1}, metadata !8017), !dbg !8018 ; [debug line = 187:43] [debug variable = this]
  store %struct.ap_uint* %op, %struct.ap_uint** %2, align 8
  call void @llvm.dbg.declare(metadata !{%struct.ap_uint** %2}, metadata !8019), !dbg !8020 ; [debug line = 187:74] [debug variable = op]
  %3 = load %struct.ap_uint.6** %1                ; [#uses=1 type=%struct.ap_uint.6*]
  %4 = load %struct.ap_uint** %2, !dbg !8021      ; [#uses=1 type=%struct.ap_uint*] [debug line = 187:96]
  call void @_ZN7ap_uintILi16EEC2ILi8EEERKS_IXT_EE(%struct.ap_uint.6* %3, %struct.ap_uint* %4), !dbg !8021 ; [debug line = 187:96]
  ret void, !dbg !8021                            ; [debug line = 187:96]
}

; [#uses=3]
define linkonce_odr void @_ZN7ap_uintILi8EEC1ILi64ELb0EEERK12ap_range_refIXT_EXT0_EE(%struct.ap_uint* %this, %struct.ap_range_ref* %ref) unnamed_addr nounwind uwtable inlinehint alwaysinline align 2 {
  %1 = alloca %struct.ap_uint*, align 8           ; [#uses=2 type=%struct.ap_uint**]
  %2 = alloca %struct.ap_range_ref*, align 8      ; [#uses=2 type=%struct.ap_range_ref**]
  store %struct.ap_uint* %this, %struct.ap_uint** %1, align 8
  call void @llvm.dbg.declare(metadata !{%struct.ap_uint** %1}, metadata !8022), !dbg !8023 ; [debug line = 199:43] [debug variable = this]
  store %struct.ap_range_ref* %ref, %struct.ap_range_ref** %2, align 8
  call void @llvm.dbg.declare(metadata !{%struct.ap_range_ref** %2}, metadata !8024), !dbg !8025 ; [debug line = 199:87] [debug variable = ref]
  %3 = load %struct.ap_uint** %1                  ; [#uses=1 type=%struct.ap_uint*]
  %4 = load %struct.ap_range_ref** %2, !dbg !8026 ; [#uses=1 type=%struct.ap_range_ref*] [debug line = 199:103]
  call void @_ZN7ap_uintILi8EEC2ILi64ELb0EEERK12ap_range_refIXT_EXT0_EE(%struct.ap_uint* %3, %struct.ap_range_ref* %4), !dbg !8026 ; [debug line = 199:103]
  ret void, !dbg !8026                            ; [debug line = 199:103]
}

; [#uses=15]
define linkonce_odr %struct.ap_uint.0* @_ZN7ap_uintILi32EEaSERKS0_(%struct.ap_uint.0* %this, %struct.ap_uint.0* %op2) nounwind uwtable inlinehint alwaysinline align 2 {
  %1 = alloca %struct.ap_uint.0*, align 8         ; [#uses=2 type=%struct.ap_uint.0**]
  %2 = alloca %struct.ap_uint.0*, align 8         ; [#uses=2 type=%struct.ap_uint.0**]
  store %struct.ap_uint.0* %this, %struct.ap_uint.0** %1, align 8
  call void @llvm.dbg.declare(metadata !{%struct.ap_uint.0** %1}, metadata !8027), !dbg !8029 ; [debug line = 279:53] [debug variable = this]
  store %struct.ap_uint.0* %op2, %struct.ap_uint.0** %2, align 8
  call void @llvm.dbg.declare(metadata !{%struct.ap_uint.0** %2}, metadata !8030), !dbg !8031 ; [debug line = 279:87] [debug variable = op2]
  %3 = load %struct.ap_uint.0** %1                ; [#uses=2 type=%struct.ap_uint.0*]
  %4 = load %struct.ap_uint.0** %2, align 8, !dbg !8032 ; [#uses=1 type=%struct.ap_uint.0*] [debug line = 280:10]
  %5 = bitcast %struct.ap_uint.0* %4 to %struct.ssdm_int.2*, !dbg !8032 ; [#uses=1 type=%struct.ssdm_int.2*] [debug line = 280:10]
  %6 = getelementptr inbounds %struct.ssdm_int.2* %5, i32 0, i32 0, !dbg !8032 ; [#uses=1 type=i32*] [debug line = 280:10]
  %7 = load i32* %6, align 4, !dbg !8032          ; [#uses=1 type=i32] [debug line = 280:10]
  %8 = bitcast %struct.ap_uint.0* %3 to %struct.ap_int_base.1*, !dbg !8032 ; [#uses=1 type=%struct.ap_int_base.1*] [debug line = 280:10]
  %9 = bitcast %struct.ap_int_base.1* %8 to %struct.ssdm_int.2*, !dbg !8032 ; [#uses=1 type=%struct.ssdm_int.2*] [debug line = 280:10]
  %10 = getelementptr inbounds %struct.ssdm_int.2* %9, i32 0, i32 0, !dbg !8032 ; [#uses=1 type=i32*] [debug line = 280:10]
  store i32 %7, i32* %10, align 4, !dbg !8032     ; [debug line = 280:10]
  ret %struct.ap_uint.0* %3, !dbg !8034           ; [debug line = 281:10]
}

; [#uses=1]
define linkonce_odr void @_ZN7ap_uintILi32EEC1ILi64ELb0EEERK12ap_range_refIXT_EXT0_EE(%struct.ap_uint.0* %this, %struct.ap_range_ref* %ref) unnamed_addr nounwind uwtable inlinehint alwaysinline align 2 {
  %1 = alloca %struct.ap_uint.0*, align 8         ; [#uses=2 type=%struct.ap_uint.0**]
  %2 = alloca %struct.ap_range_ref*, align 8      ; [#uses=2 type=%struct.ap_range_ref**]
  store %struct.ap_uint.0* %this, %struct.ap_uint.0** %1, align 8
  call void @llvm.dbg.declare(metadata !{%struct.ap_uint.0** %1}, metadata !8035), !dbg !8036 ; [debug line = 199:43] [debug variable = this]
  store %struct.ap_range_ref* %ref, %struct.ap_range_ref** %2, align 8
  call void @llvm.dbg.declare(metadata !{%struct.ap_range_ref** %2}, metadata !8037), !dbg !8038 ; [debug line = 199:87] [debug variable = ref]
  %3 = load %struct.ap_uint.0** %1                ; [#uses=1 type=%struct.ap_uint.0*]
  %4 = load %struct.ap_range_ref** %2, !dbg !8039 ; [#uses=1 type=%struct.ap_range_ref*] [debug line = 199:103]
  call void @_ZN7ap_uintILi32EEC2ILi64ELb0EEERK12ap_range_refIXT_EXT0_EE(%struct.ap_uint.0* %3, %struct.ap_range_ref* %4), !dbg !8039 ; [debug line = 199:103]
  ret void, !dbg !8039                            ; [debug line = 199:103]
}

; [#uses=4]
define linkonce_odr %struct.ap_uint.3* @_ZN7ap_uintILi4EEaSERKS0_(%struct.ap_uint.3* %this, %struct.ap_uint.3* %op2) nounwind uwtable inlinehint alwaysinline align 2 {
  %1 = alloca %struct.ap_uint.3*, align 8         ; [#uses=2 type=%struct.ap_uint.3**]
  %2 = alloca %struct.ap_uint.3*, align 8         ; [#uses=2 type=%struct.ap_uint.3**]
  store %struct.ap_uint.3* %this, %struct.ap_uint.3** %1, align 8
  call void @llvm.dbg.declare(metadata !{%struct.ap_uint.3** %1}, metadata !8040), !dbg !8042 ; [debug line = 279:53] [debug variable = this]
  store %struct.ap_uint.3* %op2, %struct.ap_uint.3** %2, align 8
  call void @llvm.dbg.declare(metadata !{%struct.ap_uint.3** %2}, metadata !8043), !dbg !8044 ; [debug line = 279:87] [debug variable = op2]
  %3 = load %struct.ap_uint.3** %1                ; [#uses=2 type=%struct.ap_uint.3*]
  %4 = load %struct.ap_uint.3** %2, align 8, !dbg !8045 ; [#uses=1 type=%struct.ap_uint.3*] [debug line = 280:10]
  %5 = bitcast %struct.ap_uint.3* %4 to %struct.ssdm_int.5*, !dbg !8045 ; [#uses=1 type=%struct.ssdm_int.5*] [debug line = 280:10]
  %6 = getelementptr inbounds %struct.ssdm_int.5* %5, i32 0, i32 0, !dbg !8045 ; [#uses=1 type=i4*] [debug line = 280:10]
  %7 = load i4* %6, align 1, !dbg !8045           ; [#uses=1 type=i4] [debug line = 280:10]
  %8 = bitcast %struct.ap_uint.3* %3 to %struct.ap_int_base.4*, !dbg !8045 ; [#uses=1 type=%struct.ap_int_base.4*] [debug line = 280:10]
  %9 = bitcast %struct.ap_int_base.4* %8 to %struct.ssdm_int.5*, !dbg !8045 ; [#uses=1 type=%struct.ssdm_int.5*] [debug line = 280:10]
  %10 = getelementptr inbounds %struct.ssdm_int.5* %9, i32 0, i32 0, !dbg !8045 ; [#uses=1 type=i4*] [debug line = 280:10]
  store i4 %7, i4* %10, align 1, !dbg !8045       ; [debug line = 280:10]
  ret %struct.ap_uint.3* %3, !dbg !8047           ; [debug line = 281:10]
}

; [#uses=2]
define linkonce_odr void @_ZN7ap_uintILi4EEC1ILi64ELb0EEERK12ap_range_refIXT_EXT0_EE(%struct.ap_uint.3* %this, %struct.ap_range_ref* %ref) unnamed_addr nounwind uwtable inlinehint alwaysinline align 2 {
  %1 = alloca %struct.ap_uint.3*, align 8         ; [#uses=2 type=%struct.ap_uint.3**]
  %2 = alloca %struct.ap_range_ref*, align 8      ; [#uses=2 type=%struct.ap_range_ref**]
  store %struct.ap_uint.3* %this, %struct.ap_uint.3** %1, align 8
  call void @llvm.dbg.declare(metadata !{%struct.ap_uint.3** %1}, metadata !8048), !dbg !8049 ; [debug line = 199:43] [debug variable = this]
  store %struct.ap_range_ref* %ref, %struct.ap_range_ref** %2, align 8
  call void @llvm.dbg.declare(metadata !{%struct.ap_range_ref** %2}, metadata !8050), !dbg !8051 ; [debug line = 199:87] [debug variable = ref]
  %3 = load %struct.ap_uint.3** %1                ; [#uses=1 type=%struct.ap_uint.3*]
  %4 = load %struct.ap_range_ref** %2, !dbg !8052 ; [#uses=1 type=%struct.ap_range_ref*] [debug line = 199:103]
  call void @_ZN7ap_uintILi4EEC2ILi64ELb0EEERK12ap_range_refIXT_EXT0_EE(%struct.ap_uint.3* %3, %struct.ap_range_ref* %4), !dbg !8052 ; [debug line = 199:103]
  ret void, !dbg !8052                            ; [debug line = 199:103]
}

; [#uses=1]
define internal void @__cxx_global_var_init1() nounwind section ".text.startup" {
  call void @_ZN3hls6streamI13stream_packetEC1Ev(%"class.hls::stream"* @stream_out)
  ret void
}

; [#uses=2]
define linkonce_odr void @_ZN3hls6streamI13stream_packetEC1Ev(%"class.hls::stream"* %this) unnamed_addr nounwind uwtable inlinehint alwaysinline align 2 {
  %1 = alloca %"class.hls::stream"*, align 8      ; [#uses=2 type=%"class.hls::stream"**]
  store %"class.hls::stream"* %this, %"class.hls::stream"** %1, align 8
  call void @llvm.dbg.declare(metadata !{%"class.hls::stream"** %1}, metadata !8053), !dbg !8055 ; [debug line = 83:43] [debug variable = this]
  %2 = load %"class.hls::stream"** %1             ; [#uses=1 type=%"class.hls::stream"*]
  call void @_ZN3hls6streamI13stream_packetEC2Ev(%"class.hls::stream"* %2), !dbg !8056 ; [debug line = 84:5]
  ret void, !dbg !8056                            ; [debug line = 84:5]
}

; [#uses=1]
define internal void @__cxx_global_var_init2() nounwind section ".text.startup" {
  call void @_ZN3hls6streamI13stream_packetEC1Ev(%"class.hls::stream"* @stream_in)
  ret void
}

; [#uses=1]
define internal void @__cxx_global_var_init3() nounwind section ".text.startup" {
  br label %1

; <label>:1                                       ; preds = %1, %0
  %2 = phi %struct.envelope* [ getelementptr inbounds ([512 x %struct.envelope]* @_ZL19float_request_array, i32 0, i32 0), %0 ], [ %3, %1 ] ; [#uses=2 type=%struct.envelope*]
  call void @_ZN8envelopeC1Ev(%struct.envelope* %2)
  %3 = getelementptr inbounds %struct.envelope* %2, i64 1 ; [#uses=2 type=%struct.envelope*]
  %4 = icmp eq %struct.envelope* %3, getelementptr inbounds ([512 x %struct.envelope]* @_ZL19float_request_array, i64 1, i64 0) ; [#uses=1 type=i1]
  br i1 %4, label %5, label %1

; <label>:5                                       ; preds = %1
  ret void
}

; [#uses=40]
define linkonce_odr void @_ZN8envelopeC1Ev(%struct.envelope* %this) unnamed_addr nounwind uwtable inlinehint align 2 {
  %1 = alloca %struct.envelope*, align 8          ; [#uses=2 type=%struct.envelope**]
  store %struct.envelope* %this, %struct.envelope** %1, align 8
  call void @llvm.dbg.declare(metadata !{%struct.envelope** %1}, metadata !8057), !dbg !8058 ; [debug line = 57:8] [debug variable = this]
  %2 = load %struct.envelope** %1                 ; [#uses=1 type=%struct.envelope*]
  call void @_ZN8envelopeC2Ev(%struct.envelope* %2), !dbg !8058 ; [debug line = 57:8]
  ret void, !dbg !8058                            ; [debug line = 57:8]
}

; [#uses=1]
define internal void @__cxx_global_var_init4() nounwind section ".text.startup" {
  br label %1

; <label>:1                                       ; preds = %1, %0
  %2 = phi %struct.envelope* [ getelementptr inbounds ([512 x %struct.envelope]* @_ZL17int_request_array, i32 0, i32 0), %0 ], [ %3, %1 ] ; [#uses=2 type=%struct.envelope*]
  call void @_ZN8envelopeC1Ev(%struct.envelope* %2)
  %3 = getelementptr inbounds %struct.envelope* %2, i64 1 ; [#uses=2 type=%struct.envelope*]
  %4 = icmp eq %struct.envelope* %3, getelementptr inbounds ([512 x %struct.envelope]* @_ZL17int_request_array, i64 1, i64 0) ; [#uses=1 type=i1]
  br i1 %4, label %5, label %1

; <label>:5                                       ; preds = %1
  ret void
}

; [#uses=1]
define internal void @__cxx_global_var_init5() nounwind section ".text.startup" {
  br label %1

; <label>:1                                       ; preds = %1, %0
  %2 = phi %struct.envelope* [ getelementptr inbounds ([512 x %struct.envelope]* @_ZL19float_clr2snd_array, i32 0, i32 0), %0 ], [ %3, %1 ] ; [#uses=2 type=%struct.envelope*]
  call void @_ZN8envelopeC1Ev(%struct.envelope* %2)
  %3 = getelementptr inbounds %struct.envelope* %2, i64 1 ; [#uses=2 type=%struct.envelope*]
  %4 = icmp eq %struct.envelope* %3, getelementptr inbounds ([512 x %struct.envelope]* @_ZL19float_clr2snd_array, i64 1, i64 0) ; [#uses=1 type=i1]
  br i1 %4, label %5, label %1

; <label>:5                                       ; preds = %1
  ret void
}

; [#uses=1]
define internal void @__cxx_global_var_init6() nounwind section ".text.startup" {
  br label %1

; <label>:1                                       ; preds = %1, %0
  %2 = phi %struct.envelope* [ getelementptr inbounds ([512 x %struct.envelope]* @_ZL17int_clr2snd_array, i32 0, i32 0), %0 ], [ %3, %1 ] ; [#uses=2 type=%struct.envelope*]
  call void @_ZN8envelopeC1Ev(%struct.envelope* %2)
  %3 = getelementptr inbounds %struct.envelope* %2, i64 1 ; [#uses=2 type=%struct.envelope*]
  %4 = icmp eq %struct.envelope* %3, getelementptr inbounds ([512 x %struct.envelope]* @_ZL17int_clr2snd_array, i64 1, i64 0) ; [#uses=1 type=i1]
  br i1 %4, label %5, label %1

; <label>:5                                       ; preds = %1
  ret void
}

; [#uses=1]
define i32 @_Z8MPI_SendPii13MPI_DATA_TYPEiii(i32* %buf, i32 %count, i3 zeroext %dataType, i32 %dest, i32 %tag, i32 %MPI_Comm) nounwind uwtable {
  %1 = alloca i32, align 4                        ; [#uses=13 type=i32*]
  %2 = alloca i32*, align 8                       ; [#uses=2 type=i32**]
  %3 = alloca i32, align 4                        ; [#uses=7 type=i32*]
  %4 = alloca i3, align 1                         ; [#uses=8 type=i3*]
  %5 = alloca i32, align 4                        ; [#uses=10 type=i32*]
  %6 = alloca i32, align 4                        ; [#uses=2 type=i32*]
  %7 = alloca i32, align 4                        ; [#uses=1 type=i32*]
  %buff_char_ptr = alloca i8*, align 8            ; [#uses=2 type=i8**]
  %8 = alloca %struct.ap_uint, align 1            ; [#uses=2 type=%struct.ap_uint*]
  %9 = alloca %struct.ap_uint.6, align 2          ; [#uses=2 type=%struct.ap_uint.6*]
  %10 = alloca %struct.ap_uint.0, align 4         ; [#uses=2 type=%struct.ap_uint.0*]
  %11 = alloca %struct.ap_uint.0, align 4         ; [#uses=2 type=%struct.ap_uint.0*]
  %12 = alloca %struct.ap_uint.0, align 4         ; [#uses=2 type=%struct.ap_uint.0*]
  %13 = alloca %struct.ap_uint, align 1           ; [#uses=2 type=%struct.ap_uint*]
  %14 = alloca %struct.ap_uint, align 1           ; [#uses=2 type=%struct.ap_uint*]
  %pkt_out = alloca %struct.stream_packet, align 8 ; [#uses=7 type=%struct.stream_packet*]
  %15 = alloca %struct.ap_uint, align 1           ; [#uses=2 type=%struct.ap_uint*]
  %16 = alloca %struct.ap_range_ref.18, align 8   ; [#uses=2 type=%struct.ap_range_ref.18*]
  %17 = alloca %struct.ap_range_ref.18, align 8   ; [#uses=2 type=%struct.ap_range_ref.18*]
  %18 = alloca %struct.ap_uint, align 1           ; [#uses=2 type=%struct.ap_uint*]
  %19 = alloca %struct.ap_uint.9, align 8         ; [#uses=2 type=%struct.ap_uint.9*]
  %i = alloca i32, align 4                        ; [#uses=9 type=i32*]
  %20 = alloca %struct.ap_uint.9, align 8         ; [#uses=2 type=%struct.ap_uint.9*]
  %j = alloca i32, align 4                        ; [#uses=6 type=i32*]
  %last = alloca %struct.ap_uint.12, align 1      ; [#uses=4 type=%struct.ap_uint.12*]
  %recv_pkt = alloca %struct.stream_packet, align 8 ; [#uses=9 type=%struct.stream_packet*]
  %useless = alloca %struct.stream_packet, align 8 ; [#uses=3 type=%struct.stream_packet*]
  %21 = alloca %struct.stream_packet, align 8     ; [#uses=2 type=%struct.stream_packet*]
  %22 = alloca %struct.stream_packet, align 8     ; [#uses=2 type=%struct.stream_packet*]
  %temp = alloca %struct.envelope, align 4        ; [#uses=5 type=%struct.envelope*]
  %23 = alloca %struct.ap_uint.9, align 8         ; [#uses=2 type=%struct.ap_uint.9*]
  %24 = alloca %struct.ap_range_ref.18, align 8   ; [#uses=2 type=%struct.ap_range_ref.18*]
  %25 = alloca %struct.ap_range_ref.18, align 8   ; [#uses=2 type=%struct.ap_range_ref.18*]
  %temp_diff_src_or_type = alloca %struct.envelope, align 4 ; [#uses=18 type=%struct.envelope*]
  %i1 = alloca i32, align 4                       ; [#uses=10 type=i32*]
  %i2 = alloca i32, align 4                       ; [#uses=10 type=i32*]
  %26 = alloca %struct.ap_range_ref.18, align 8   ; [#uses=2 type=%struct.ap_range_ref.18*]
  %temp_diff_src_or_type3 = alloca %struct.envelope, align 4 ; [#uses=18 type=%struct.envelope*]
  %i4 = alloca i32, align 4                       ; [#uses=10 type=i32*]
  %i5 = alloca i32, align 4                       ; [#uses=10 type=i32*]
  %27 = alloca %struct.ap_int_base.10, align 8    ; [#uses=1 type=%struct.ap_int_base.10*]
  %28 = alloca %struct.ap_uint.9, align 8         ; [#uses=2 type=%struct.ap_uint.9*]
  %seq_num = alloca i32, align 4                  ; [#uses=9 type=i32*]
  %old_seq_num = alloca i32, align 4              ; [#uses=3 type=i32*]
  %i6 = alloca i32, align 4                       ; [#uses=12 type=i32*]
  %seq_inc = alloca i1, align 1                   ; [#uses=4 type=i1*]
  %transmission_done = alloca i1, align 1         ; [#uses=2 type=i1*]
  %test = alloca i1, align 1                      ; [#uses=4 type=i1*]
  %error_is_seen = alloca i1, align 1             ; [#uses=4 type=i1*]
  %to_send_data = alloca %struct.stream_packet, align 8 ; [#uses=18 type=%struct.stream_packet*]
  %recv_data = alloca %struct.stream_packet, align 8 ; [#uses=11 type=%struct.stream_packet*]
  %useless7 = alloca %struct.stream_packet, align 8 ; [#uses=3 type=%struct.stream_packet*]
  %last8 = alloca %struct.ap_uint.12, align 1     ; [#uses=4 type=%struct.ap_uint.12*]
  %29 = alloca %struct.stream_packet, align 8     ; [#uses=2 type=%struct.stream_packet*]
  %30 = alloca %struct.stream_packet, align 8     ; [#uses=2 type=%struct.stream_packet*]
  %temp9 = alloca %struct.envelope, align 4       ; [#uses=6 type=%struct.envelope*]
  %31 = alloca %struct.ap_int_base.10, align 8    ; [#uses=2 type=%struct.ap_int_base.10*]
  %32 = alloca %struct.ap_range_ref.18, align 8   ; [#uses=2 type=%struct.ap_range_ref.18*]
  %33 = alloca %struct.ap_range_ref.18, align 8   ; [#uses=2 type=%struct.ap_range_ref.18*]
  %temp_diff_src_or_type10 = alloca %struct.envelope, align 4 ; [#uses=18 type=%struct.envelope*]
  %is_duplicated = alloca i1, align 1             ; [#uses=3 type=i1*]
  %i11 = alloca i32, align 4                      ; [#uses=10 type=i32*]
  %is_duplicated12 = alloca i1, align 1           ; [#uses=3 type=i1*]
  %i13 = alloca i32, align 4                      ; [#uses=10 type=i32*]
  %34 = alloca %struct.ap_range_ref.18, align 8   ; [#uses=2 type=%struct.ap_range_ref.18*]
  %temp_diff_src_or_type14 = alloca %struct.envelope, align 4 ; [#uses=18 type=%struct.envelope*]
  %is_duplicated15 = alloca i1, align 1           ; [#uses=3 type=i1*]
  %i16 = alloca i32, align 4                      ; [#uses=10 type=i32*]
  %is_duplicated17 = alloca i1, align 1           ; [#uses=3 type=i1*]
  %i18 = alloca i32, align 4                      ; [#uses=10 type=i32*]
  %garbage = alloca %struct.stream_packet, align 8 ; [#uses=2 type=%struct.stream_packet*]
  %35 = alloca %struct.ap_uint.9, align 8         ; [#uses=2 type=%struct.ap_uint.9*]
  %36 = alloca %struct.ap_uint.12, align 1        ; [#uses=2 type=%struct.ap_uint.12*]
  %37 = alloca %struct.ap_uint, align 1           ; [#uses=2 type=%struct.ap_uint*]
  %38 = alloca %struct.ap_range_ref.18, align 8   ; [#uses=2 type=%struct.ap_range_ref.18*]
  %39 = alloca %struct.ap_range_ref.18, align 8   ; [#uses=2 type=%struct.ap_range_ref.18*]
  %40 = alloca %struct.ap_range_ref.18, align 8   ; [#uses=2 type=%struct.ap_range_ref.18*]
  %j19 = alloca i32, align 4                      ; [#uses=7 type=i32*]
  %41 = alloca %struct.ap_range_ref, align 8      ; [#uses=2 type=%struct.ap_range_ref*]
  %42 = alloca %struct.ap_uint, align 1           ; [#uses=2 type=%struct.ap_uint*]
  %43 = alloca %struct.ap_uint.12, align 1        ; [#uses=2 type=%struct.ap_uint.12*]
  %44 = alloca %struct.ap_uint.12, align 1        ; [#uses=2 type=%struct.ap_uint.12*]
  %45 = alloca %struct.ap_uint.12, align 1        ; [#uses=2 type=%struct.ap_uint.12*]
  %46 = alloca %struct.ap_range_ref.18, align 8   ; [#uses=2 type=%struct.ap_range_ref.18*]
  %47 = alloca %struct.ap_range_ref.18, align 8   ; [#uses=2 type=%struct.ap_range_ref.18*]
  %48 = alloca %struct.ap_range_ref.18, align 8   ; [#uses=2 type=%struct.ap_range_ref.18*]
  %49 = alloca %struct.ap_uint, align 1           ; [#uses=2 type=%struct.ap_uint*]
  %recv_data20 = alloca %struct.stream_packet, align 8 ; [#uses=11 type=%struct.stream_packet*]
  %useless21 = alloca %struct.stream_packet, align 8 ; [#uses=3 type=%struct.stream_packet*]
  %last22 = alloca %struct.ap_uint.12, align 1    ; [#uses=4 type=%struct.ap_uint.12*]
  %50 = alloca %struct.stream_packet, align 8     ; [#uses=2 type=%struct.stream_packet*]
  %51 = alloca %struct.stream_packet, align 8     ; [#uses=2 type=%struct.stream_packet*]
  %temp23 = alloca %struct.envelope, align 4      ; [#uses=6 type=%struct.envelope*]
  %52 = alloca %struct.ap_int_base.10, align 8    ; [#uses=2 type=%struct.ap_int_base.10*]
  %53 = alloca %struct.ap_int_base.21, align 8    ; [#uses=2 type=%struct.ap_int_base.21*]
  %54 = alloca %struct.ap_range_ref.18, align 8   ; [#uses=2 type=%struct.ap_range_ref.18*]
  %55 = alloca %struct.ap_range_ref.18, align 8   ; [#uses=2 type=%struct.ap_range_ref.18*]
  %temp_diff_src_or_type24 = alloca %struct.envelope, align 4 ; [#uses=18 type=%struct.envelope*]
  %is_duplicated25 = alloca i1, align 1           ; [#uses=3 type=i1*]
  %i26 = alloca i32, align 4                      ; [#uses=10 type=i32*]
  %is_duplicated27 = alloca i1, align 1           ; [#uses=3 type=i1*]
  %i28 = alloca i32, align 4                      ; [#uses=10 type=i32*]
  %56 = alloca %struct.ap_range_ref.18, align 8   ; [#uses=2 type=%struct.ap_range_ref.18*]
  %temp_diff_src_or_type29 = alloca %struct.envelope, align 4 ; [#uses=18 type=%struct.envelope*]
  %is_duplicated30 = alloca i1, align 1           ; [#uses=3 type=i1*]
  %i31 = alloca i32, align 4                      ; [#uses=10 type=i32*]
  %is_duplicated32 = alloca i1, align 1           ; [#uses=3 type=i1*]
  %i33 = alloca i32, align 4                      ; [#uses=10 type=i32*]
  store i32* %buf, i32** %2, align 8
  call void @llvm.dbg.declare(metadata !{i32** %2}, metadata !8059), !dbg !8060 ; [debug line = 111:9] [debug variable = buf]
  store i32 %count, i32* %3, align 4
  call void @llvm.dbg.declare(metadata !{i32* %3}, metadata !8061), !dbg !8062 ; [debug line = 112:7] [debug variable = count]
  store i3 %dataType, i3* %4, align 1
  call void @llvm.dbg.declare(metadata !{i3* %4}, metadata !8063), !dbg !8064 ; [debug line = 113:17] [debug variable = dataType]
  store i32 %dest, i32* %5, align 4
  call void @llvm.dbg.declare(metadata !{i32* %5}, metadata !8065), !dbg !8066 ; [debug line = 114:7] [debug variable = dest]
  store i32 %tag, i32* %6, align 4
  call void @llvm.dbg.declare(metadata !{i32* %6}, metadata !8067), !dbg !8068 ; [debug line = 115:7] [debug variable = tag]
  store i32 %MPI_Comm, i32* %7, align 4
  call void @llvm.dbg.declare(metadata !{i32* %7}, metadata !8069), !dbg !8070 ; [debug line = 116:7] [debug variable = MPI_Comm]
  call void @llvm.dbg.declare(metadata !{i8** %buff_char_ptr}, metadata !8071), !dbg !8073 ; [debug line = 122:9] [debug variable = buff_char_ptr]
  %57 = load i32** %2, align 8, !dbg !8074        ; [#uses=1 type=i32*] [debug line = 122:37]
  %58 = bitcast i32* %57 to i8*, !dbg !8074       ; [#uses=1 type=i8*] [debug line = 122:37]
  store i8* %58, i8** %buff_char_ptr, align 8, !dbg !8074 ; [debug line = 122:37]
  %59 = load i8* @_ZGVZ8MPI_SendPii13MPI_DATA_TYPEiiiE4time, align 1, !dbg !8075 ; [#uses=1 type=i8] [debug line = 125:29]
  %60 = icmp eq i8 %59, 0, !dbg !8075             ; [#uses=1 type=i1] [debug line = 125:29]
  br i1 %60, label %61, label %62, !dbg !8075     ; [debug line = 125:29]

; <label>:61                                      ; preds = %0
  call void @_ZN7ap_uintILi64EEC1Ei(%struct.ap_uint.9* @_ZZ8MPI_SendPii13MPI_DATA_TYPEiiiE4time, i32 0), !dbg !8075 ; [debug line = 125:29]
  store i8 1, i8* @_ZGVZ8MPI_SendPii13MPI_DATA_TYPEiiiE4time, !dbg !8075 ; [debug line = 125:29]
  br label %62, !dbg !8075                        ; [debug line = 125:29]

; <label>:62                                      ; preds = %61, %0
  %63 = load i8* @_ZGVZ8MPI_SendPii13MPI_DATA_TYPEiiiE5envlp, align 1, !dbg !8076 ; [#uses=1 type=i8] [debug line = 129:23]
  %64 = icmp eq i8 %63, 0, !dbg !8076             ; [#uses=1 type=i1] [debug line = 129:23]
  br i1 %64, label %65, label %66, !dbg !8076     ; [debug line = 129:23]

; <label>:65                                      ; preds = %62
  call void @_ZN8envelopeC1Ev(%struct.envelope* @_ZZ8MPI_SendPii13MPI_DATA_TYPEiiiE5envlp), !dbg !8076 ; [debug line = 129:23]
  store i8 1, i8* @_ZGVZ8MPI_SendPii13MPI_DATA_TYPEiiiE5envlp, !dbg !8076 ; [debug line = 129:23]
  br label %66, !dbg !8076                        ; [debug line = 129:23]

; <label>:66                                      ; preds = %65, %62
  %67 = load i2* @_ZZ8MPI_SendPii13MPI_DATA_TYPEiiiE5state, align 1, !dbg !8077 ; [#uses=1 type=i2] [debug line = 131:2]
  %68 = zext i2 %67 to i32, !dbg !8077            ; [#uses=1 type=i32] [debug line = 131:2]
  switch i32 %68, label %1398 [
    i32 0, label %69
    i32 1, label %118
    i32 2, label %528
  ], !dbg !8077                                   ; [debug line = 131:2]

; <label>:69                                      ; preds = %66
  call void @_ZN7ap_uintILi8EEC1Ei(%struct.ap_uint* %8, i32 0), !dbg !8078 ; [debug line = 134:3]
  %70 = call %struct.ap_uint* @_ZN7ap_uintILi8EEaSERKS0_(%struct.ap_uint* getelementptr inbounds (%struct.envelope* @_ZZ8MPI_SendPii13MPI_DATA_TYPEiiiE5envlp, i32 0, i32 0), %struct.ap_uint* %8), !dbg !8078 ; [#uses=0 type=%struct.ap_uint*] [debug line = 134:3]
  %71 = load i32* %5, align 4, !dbg !8081         ; [#uses=1 type=i32] [debug line = 135:3]
  call void @_ZN7ap_uintILi16EEC1Ei(%struct.ap_uint.6* %9, i32 %71), !dbg !8081 ; [debug line = 135:3]
  %72 = call %struct.ap_uint.6* @_ZN7ap_uintILi16EEaSERKS0_(%struct.ap_uint.6* getelementptr inbounds (%struct.envelope* @_ZZ8MPI_SendPii13MPI_DATA_TYPEiiiE5envlp, i32 0, i32 6), %struct.ap_uint.6* %9), !dbg !8081 ; [#uses=0 type=%struct.ap_uint.6*] [debug line = 135:3]
  %73 = load i3* %4, align 1, !dbg !8082          ; [#uses=1 type=i3] [debug line = 136:3]
  %74 = zext i3 %73 to i32, !dbg !8082            ; [#uses=1 type=i32] [debug line = 136:3]
  %75 = icmp eq i32 %74, 4, !dbg !8082            ; [#uses=1 type=i1] [debug line = 136:3]
  br i1 %75, label %80, label %76, !dbg !8082     ; [debug line = 136:3]

; <label>:76                                      ; preds = %69
  %77 = load i3* %4, align 1, !dbg !8082          ; [#uses=1 type=i3] [debug line = 136:3]
  %78 = zext i3 %77 to i32, !dbg !8082            ; [#uses=1 type=i32] [debug line = 136:3]
  %79 = icmp eq i32 %78, 4, !dbg !8082            ; [#uses=1 type=i1] [debug line = 136:3]
  br i1 %79, label %80, label %83, !dbg !8082     ; [debug line = 136:3]

; <label>:80                                      ; preds = %76, %69
  %81 = load i32* %3, align 4, !dbg !8083         ; [#uses=1 type=i32] [debug line = 137:4]
  call void @_ZN7ap_uintILi32EEC1Ei(%struct.ap_uint.0* %10, i32 %81), !dbg !8083 ; [debug line = 137:4]
  %82 = call %struct.ap_uint.0* @_ZN7ap_uintILi32EEaSERKS0_(%struct.ap_uint.0* getelementptr inbounds (%struct.envelope* @_ZZ8MPI_SendPii13MPI_DATA_TYPEiiiE5envlp, i32 0, i32 2), %struct.ap_uint.0* %10), !dbg !8083 ; [#uses=0 type=%struct.ap_uint.0*] [debug line = 137:4]
  br label %102, !dbg !8085                       ; [debug line = 138:3]

; <label>:83                                      ; preds = %76
  %84 = load i3* %4, align 1, !dbg !8086          ; [#uses=1 type=i3] [debug line = 139:8]
  %85 = zext i3 %84 to i32, !dbg !8086            ; [#uses=1 type=i32] [debug line = 139:8]
  %86 = icmp eq i32 %85, 2, !dbg !8086            ; [#uses=1 type=i1] [debug line = 139:8]
  br i1 %86, label %87, label %91, !dbg !8086     ; [debug line = 139:8]

; <label>:87                                      ; preds = %83
  %88 = load i32* %3, align 4, !dbg !8087         ; [#uses=1 type=i32] [debug line = 140:4]
  %89 = mul nsw i32 %88, 2, !dbg !8087            ; [#uses=1 type=i32] [debug line = 140:4]
  call void @_ZN7ap_uintILi32EEC1Ei(%struct.ap_uint.0* %11, i32 %89), !dbg !8087 ; [debug line = 140:4]
  %90 = call %struct.ap_uint.0* @_ZN7ap_uintILi32EEaSERKS0_(%struct.ap_uint.0* getelementptr inbounds (%struct.envelope* @_ZZ8MPI_SendPii13MPI_DATA_TYPEiiiE5envlp, i32 0, i32 2), %struct.ap_uint.0* %11), !dbg !8087 ; [#uses=0 type=%struct.ap_uint.0*] [debug line = 140:4]
  br label %101, !dbg !8089                       ; [debug line = 141:3]

; <label>:91                                      ; preds = %83
  %92 = load i3* %4, align 1, !dbg !8090          ; [#uses=1 type=i3] [debug line = 142:8]
  %93 = zext i3 %92 to i32, !dbg !8090            ; [#uses=1 type=i32] [debug line = 142:8]
  %94 = icmp eq i32 %93, 1, !dbg !8090            ; [#uses=1 type=i1] [debug line = 142:8]
  br i1 %94, label %95, label %99, !dbg !8090     ; [debug line = 142:8]

; <label>:95                                      ; preds = %91
  %96 = load i32* %3, align 4, !dbg !8091         ; [#uses=1 type=i32] [debug line = 143:4]
  %97 = mul nsw i32 %96, 4, !dbg !8091            ; [#uses=1 type=i32] [debug line = 143:4]
  call void @_ZN7ap_uintILi32EEC1Ei(%struct.ap_uint.0* %12, i32 %97), !dbg !8091 ; [debug line = 143:4]
  %98 = call %struct.ap_uint.0* @_ZN7ap_uintILi32EEaSERKS0_(%struct.ap_uint.0* getelementptr inbounds (%struct.envelope* @_ZZ8MPI_SendPii13MPI_DATA_TYPEiiiE5envlp, i32 0, i32 2), %struct.ap_uint.0* %12), !dbg !8091 ; [#uses=0 type=%struct.ap_uint.0*] [debug line = 143:4]
  br label %100, !dbg !8093                       ; [debug line = 144:3]

; <label>:99                                      ; preds = %91
  store i32 -1, i32* %1, !dbg !8094               ; [debug line = 146:4]
  br label %1399, !dbg !8094                      ; [debug line = 146:4]

; <label>:100                                     ; preds = %95
  br label %101

; <label>:101                                     ; preds = %100, %87
  br label %102

; <label>:102                                     ; preds = %101, %80
  call void @_ZN7ap_uintILi8EEC1Ei(%struct.ap_uint* %13, i32 0), !dbg !8096 ; [debug line = 148:3]
  %103 = call %struct.ap_uint* @_ZN7ap_uintILi8EEaSERKS0_(%struct.ap_uint* getelementptr inbounds (%struct.envelope* @_ZZ8MPI_SendPii13MPI_DATA_TYPEiiiE5envlp, i32 0, i32 1), %struct.ap_uint* %13), !dbg !8096 ; [#uses=0 type=%struct.ap_uint*] [debug line = 148:3]
  %104 = load i32* %6, align 4, !dbg !8097        ; [#uses=1 type=i32] [debug line = 149:3]
  call void @_ZN7ap_uintILi8EEC1Ei(%struct.ap_uint* %14, i32 %104), !dbg !8097 ; [debug line = 149:3]
  %105 = call %struct.ap_uint* @_ZN7ap_uintILi8EEaSERKS0_(%struct.ap_uint* getelementptr inbounds (%struct.envelope* @_ZZ8MPI_SendPii13MPI_DATA_TYPEiiiE5envlp, i32 0, i32 3), %struct.ap_uint* %14), !dbg !8097 ; [#uses=0 type=%struct.ap_uint*] [debug line = 149:3]
  call void @llvm.dbg.declare(metadata !{%struct.stream_packet* %pkt_out}, metadata !8098), !dbg !8099 ; [debug line = 150:17] [debug variable = pkt_out]
  call void @_ZN13stream_packetC1Ev(%struct.stream_packet* %pkt_out), !dbg !8100 ; [debug line = 150:24]
  call void @_Z18envelope_to_packetP8envelopeP13stream_packet(%struct.envelope* @_ZZ8MPI_SendPii13MPI_DATA_TYPEiiiE5envlp, %struct.stream_packet* %pkt_out), !dbg !8101 ; [debug line = 151:3]
  %106 = getelementptr inbounds %struct.stream_packet* %pkt_out, i32 0, i32 1, !dbg !8102 ; [#uses=1 type=%struct.ap_uint*] [debug line = 152:3]
  %107 = load i32* %5, align 4, !dbg !8102        ; [#uses=1 type=i32] [debug line = 152:3]
  call void @_ZN7ap_uintILi8EEC1Ei(%struct.ap_uint* %15, i32 %107), !dbg !8102 ; [debug line = 152:3]
  %108 = call %struct.ap_uint* @_ZN7ap_uintILi8EEaSERKS0_(%struct.ap_uint* %106, %struct.ap_uint* %15), !dbg !8102 ; [#uses=0 type=%struct.ap_uint*] [debug line = 152:3]
  %109 = getelementptr inbounds %struct.stream_packet* %pkt_out, i32 0, i32 4, !dbg !8103 ; [#uses=1 type=%struct.ap_uint.15*] [debug line = 153:3]
  %110 = bitcast %struct.ap_uint.15* %109 to %struct.ap_int_base.16*, !dbg !8103 ; [#uses=1 type=%struct.ap_int_base.16*] [debug line = 153:3]
  call void @_ZN11ap_int_baseILi40ELb0ELb1EEclEii(%struct.ap_range_ref.18* sret %16, %struct.ap_int_base.16* %110, i32 3, i32 0), !dbg !8103 ; [debug line = 153:3]
  %111 = call %struct.ap_range_ref.18* @_ZN12ap_range_refILi40ELb0EEaSEy(%struct.ap_range_ref.18* %16, i64 0), !dbg !8103 ; [#uses=0 type=%struct.ap_range_ref.18*] [debug line = 153:3]
  %112 = getelementptr inbounds %struct.stream_packet* %pkt_out, i32 0, i32 4, !dbg !8104 ; [#uses=1 type=%struct.ap_uint.15*] [debug line = 154:3]
  %113 = bitcast %struct.ap_uint.15* %112 to %struct.ap_int_base.16*, !dbg !8104 ; [#uses=1 type=%struct.ap_int_base.16*] [debug line = 154:3]
  call void @_ZN11ap_int_baseILi40ELb0ELb1EEclEii(%struct.ap_range_ref.18* sret %17, %struct.ap_int_base.16* %113, i32 7, i32 4), !dbg !8104 ; [debug line = 154:3]
  %114 = call %struct.ap_range_ref.18* @_ZN12ap_range_refILi40ELb0EEaSEy(%struct.ap_range_ref.18* %17, i64 0), !dbg !8104 ; [#uses=0 type=%struct.ap_range_ref.18*] [debug line = 154:3]
  %115 = getelementptr inbounds %struct.stream_packet* %pkt_out, i32 0, i32 3, !dbg !8105 ; [#uses=1 type=%struct.ap_uint*] [debug line = 155:3]
  call void @_ZN7ap_uintILi8EEC1Ei(%struct.ap_uint* %18, i32 0), !dbg !8105 ; [debug line = 155:3]
  %116 = call %struct.ap_uint* @_ZN7ap_uintILi8EEaSERKS0_(%struct.ap_uint* %115, %struct.ap_uint* %18), !dbg !8105 ; [#uses=0 type=%struct.ap_uint*] [debug line = 155:3]
  call void @_ZN3hls6streamI13stream_packetE5writeERKS1_(%"class.hls::stream"* @stream_out, %struct.stream_packet* %pkt_out), !dbg !8106 ; [debug line = 156:3]
  store i2 1, i2* @_ZZ8MPI_SendPii13MPI_DATA_TYPEiiiE5state, align 1, !dbg !8107 ; [debug line = 157:3]
  call void @_ZN7ap_uintILi64EEC1Ei(%struct.ap_uint.9* %19, i32 0), !dbg !8108 ; [debug line = 159:3]
  %117 = call %struct.ap_uint.9* @_ZN7ap_uintILi64EEaSERKS0_(%struct.ap_uint.9* @_ZZ8MPI_SendPii13MPI_DATA_TYPEiiiE4time, %struct.ap_uint.9* %19), !dbg !8108 ; [#uses=0 type=%struct.ap_uint.9*] [debug line = 159:3]
  br label %1398, !dbg !8109                      ; [debug line = 161:2]

; <label>:118                                     ; preds = %66
  call void @llvm.dbg.declare(metadata !{i32* %i}, metadata !8110), !dbg !8113 ; [debug line = 164:11] [debug variable = i]
  store i32 0, i32* %i, align 4, !dbg !8114       ; [debug line = 164:17]
  br label %119, !dbg !8114                       ; [debug line = 164:17]

; <label>:119                                     ; preds = %172, %118
  %120 = load i32* %i, align 4, !dbg !8114        ; [#uses=1 type=i32] [debug line = 164:17]
  %121 = load i32* @_ZL11int_clr_num, align 4, !dbg !8114 ; [#uses=1 type=i32] [debug line = 164:17]
  %122 = icmp slt i32 %120, %121, !dbg !8114      ; [#uses=1 type=i1] [debug line = 164:17]
  br i1 %122, label %123, label %175, !dbg !8114  ; [debug line = 164:17]

; <label>:123                                     ; preds = %119
  %124 = load i32* %i, align 4, !dbg !8115        ; [#uses=1 type=i32] [debug line = 165:7]
  %125 = sext i32 %124 to i64, !dbg !8115         ; [#uses=1 type=i64] [debug line = 165:7]
  %126 = getelementptr inbounds [512 x %struct.envelope]* @_ZL17int_clr2snd_array, i32 0, i64 %125, !dbg !8115 ; [#uses=1 type=%struct.envelope*] [debug line = 165:7]
  %127 = getelementptr inbounds %struct.envelope* %126, i32 0, i32 1, !dbg !8115 ; [#uses=1 type=%struct.ap_uint*] [debug line = 165:7]
  %128 = bitcast %struct.ap_uint* %127 to %struct.ap_int_base*, !dbg !8115 ; [#uses=1 type=%struct.ap_int_base*] [debug line = 165:7]
  %129 = call zeroext i1 @_ZeqILi8ELb0EEbRK11ap_int_baseIXT_EXT0_EXleT_Li64EEEi(%struct.ap_int_base* %128, i32 1), !dbg !8115 ; [#uses=1 type=i1] [debug line = 165:7]
  br i1 %129, label %130, label %171, !dbg !8115  ; [debug line = 165:7]

; <label>:130                                     ; preds = %123
  %131 = load i32* %i, align 4, !dbg !8117        ; [#uses=1 type=i32] [debug line = 166:7]
  %132 = sext i32 %131 to i64, !dbg !8117         ; [#uses=1 type=i64] [debug line = 166:7]
  %133 = getelementptr inbounds [512 x %struct.envelope]* @_ZL17int_clr2snd_array, i32 0, i64 %132, !dbg !8117 ; [#uses=1 type=%struct.envelope*] [debug line = 166:7]
  %134 = getelementptr inbounds %struct.envelope* %133, i32 0, i32 6, !dbg !8117 ; [#uses=1 type=%struct.ap_uint.6*] [debug line = 166:7]
  %135 = bitcast %struct.ap_uint.6* %134 to %struct.ap_int_base.7*, !dbg !8117 ; [#uses=1 type=%struct.ap_int_base.7*] [debug line = 166:7]
  %136 = call zeroext i1 @_ZeqILi16ELb0EEbRK11ap_int_baseIXT_EXT0_EXleT_Li64EEEi(%struct.ap_int_base.7* %135, i32 0), !dbg !8117 ; [#uses=1 type=i1] [debug line = 166:7]
  br i1 %136, label %137, label %171, !dbg !8117  ; [debug line = 166:7]

; <label>:137                                     ; preds = %130
  %138 = load i32* %i, align 4, !dbg !8118        ; [#uses=1 type=i32] [debug line = 167:7]
  %139 = sext i32 %138 to i64, !dbg !8118         ; [#uses=1 type=i64] [debug line = 167:7]
  %140 = getelementptr inbounds [512 x %struct.envelope]* @_ZL17int_clr2snd_array, i32 0, i64 %139, !dbg !8118 ; [#uses=1 type=%struct.envelope*] [debug line = 167:7]
  %141 = getelementptr inbounds %struct.envelope* %140, i32 0, i32 0, !dbg !8118 ; [#uses=1 type=%struct.ap_uint*] [debug line = 167:7]
  %142 = bitcast %struct.ap_uint* %141 to %struct.ap_int_base*, !dbg !8118 ; [#uses=1 type=%struct.ap_int_base*] [debug line = 167:7]
  %143 = load i32* %5, align 4, !dbg !8118        ; [#uses=1 type=i32] [debug line = 167:7]
  %144 = call zeroext i1 @_ZeqILi8ELb0EEbRK11ap_int_baseIXT_EXT0_EXleT_Li64EEEi(%struct.ap_int_base* %142, i32 %143), !dbg !8118 ; [#uses=1 type=i1] [debug line = 167:7]
  br i1 %144, label %145, label %171, !dbg !8118  ; [debug line = 167:7]

; <label>:145                                     ; preds = %137
  %146 = load i32* %i, align 4, !dbg !8119        ; [#uses=1 type=i32] [debug line = 168:5]
  %147 = sext i32 %146 to i64, !dbg !8119         ; [#uses=1 type=i64] [debug line = 168:5]
  %148 = getelementptr inbounds [512 x %struct.envelope]* @_ZL17int_clr2snd_array, i32 0, i64 %147, !dbg !8119 ; [#uses=1 type=%struct.envelope*] [debug line = 168:5]
  %149 = call %struct.envelope* @_ZN8envelopeaSERKS_(%struct.envelope* @_ZZ8MPI_SendPii13MPI_DATA_TYPEiiiE5envlp, %struct.envelope* %148), !dbg !8119 ; [#uses=0 type=%struct.envelope*] [debug line = 168:5]
  store i2 -2, i2* @_ZZ8MPI_SendPii13MPI_DATA_TYPEiiiE5state, align 1, !dbg !8121 ; [debug line = 169:5]
  call void @_ZN7ap_uintILi64EEC1Ei(%struct.ap_uint.9* %20, i32 0), !dbg !8122 ; [debug line = 170:5]
  %150 = call %struct.ap_uint.9* @_ZN7ap_uintILi64EEaSERKS0_(%struct.ap_uint.9* @_ZZ8MPI_SendPii13MPI_DATA_TYPEiiiE4time, %struct.ap_uint.9* %20), !dbg !8122 ; [#uses=0 type=%struct.ap_uint.9*] [debug line = 170:5]
  %151 = load i32* @_ZL11int_clr_num, align 4, !dbg !8123 ; [#uses=1 type=i32] [debug line = 171:5]
  %152 = add nsw i32 %151, -1, !dbg !8123         ; [#uses=1 type=i32] [debug line = 171:5]
  store i32 %152, i32* @_ZL11int_clr_num, align 4, !dbg !8123 ; [debug line = 171:5]
  call void @llvm.dbg.declare(metadata !{i32* %j}, metadata !8124), !dbg !8126 ; [debug line = 172:13] [debug variable = j]
  %153 = load i32* %i, align 4, !dbg !8127        ; [#uses=1 type=i32] [debug line = 172:18]
  store i32 %153, i32* %j, align 4, !dbg !8127    ; [debug line = 172:18]
  br label %154, !dbg !8127                       ; [debug line = 172:18]

; <label>:154                                     ; preds = %167, %145
  %155 = load i32* %j, align 4, !dbg !8127        ; [#uses=1 type=i32] [debug line = 172:18]
  %156 = load i32* @_ZL11int_clr_num, align 4, !dbg !8127 ; [#uses=1 type=i32] [debug line = 172:18]
  %157 = icmp slt i32 %155, %156, !dbg !8127      ; [#uses=1 type=i1] [debug line = 172:18]
  br i1 %157, label %158, label %170, !dbg !8127  ; [debug line = 172:18]

; <label>:158                                     ; preds = %154
  %159 = load i32* %j, align 4, !dbg !8128        ; [#uses=1 type=i32] [debug line = 173:6]
  %160 = sext i32 %159 to i64, !dbg !8128         ; [#uses=1 type=i64] [debug line = 173:6]
  %161 = getelementptr inbounds [512 x %struct.envelope]* @_ZL17int_clr2snd_array, i32 0, i64 %160, !dbg !8128 ; [#uses=1 type=%struct.envelope*] [debug line = 173:6]
  %162 = load i32* %j, align 4, !dbg !8128        ; [#uses=1 type=i32] [debug line = 173:6]
  %163 = add nsw i32 %162, 1, !dbg !8128          ; [#uses=1 type=i32] [debug line = 173:6]
  %164 = sext i32 %163 to i64, !dbg !8128         ; [#uses=1 type=i64] [debug line = 173:6]
  %165 = getelementptr inbounds [512 x %struct.envelope]* @_ZL17int_clr2snd_array, i32 0, i64 %164, !dbg !8128 ; [#uses=1 type=%struct.envelope*] [debug line = 173:6]
  %166 = call %struct.envelope* @_ZN8envelopeaSERKS_(%struct.envelope* %161, %struct.envelope* %165), !dbg !8128 ; [#uses=0 type=%struct.envelope*] [debug line = 173:6]
  br label %167, !dbg !8130                       ; [debug line = 174:5]

; <label>:167                                     ; preds = %158
  %168 = load i32* %j, align 4, !dbg !8131        ; [#uses=1 type=i32] [debug line = 172:36]
  %169 = add nsw i32 %168, 1, !dbg !8131          ; [#uses=1 type=i32] [debug line = 172:36]
  store i32 %169, i32* %j, align 4, !dbg !8131    ; [debug line = 172:36]
  br label %154, !dbg !8131                       ; [debug line = 172:36]

; <label>:170                                     ; preds = %154
  store i32 0, i32* %1, !dbg !8132                ; [debug line = 175:5]
  br label %1399, !dbg !8132                      ; [debug line = 175:5]

; <label>:171                                     ; preds = %137, %130, %123
  br label %172, !dbg !8133                       ; [debug line = 177:3]

; <label>:172                                     ; preds = %171
  %173 = load i32* %i, align 4, !dbg !8134        ; [#uses=1 type=i32] [debug line = 164:36]
  %174 = add nsw i32 %173, 1, !dbg !8134          ; [#uses=1 type=i32] [debug line = 164:36]
  store i32 %174, i32* %i, align 4, !dbg !8134    ; [debug line = 164:36]
  br label %119, !dbg !8134                       ; [debug line = 164:36]

; <label>:175                                     ; preds = %119
  call void @llvm.dbg.declare(metadata !{%struct.ap_uint.12* %last}, metadata !8135), !dbg !8136 ; [debug line = 181:14] [debug variable = last]
  call void @_ZN7ap_uintILi1EEC1Ev(%struct.ap_uint.12* %last), !dbg !8137 ; [debug line = 181:18]
  call void @llvm.dbg.declare(metadata !{%struct.stream_packet* %recv_pkt}, metadata !8138), !dbg !8139 ; [debug line = 182:17] [debug variable = recv_pkt]
  call void @_ZN13stream_packetC1Ev(%struct.stream_packet* %recv_pkt), !dbg !8140 ; [debug line = 182:33]
  call void @llvm.dbg.declare(metadata !{%struct.stream_packet* %useless}, metadata !8141), !dbg !8142 ; [debug line = 182:26] [debug variable = useless]
  call void @_ZN13stream_packetC1Ev(%struct.stream_packet* %useless), !dbg !8140 ; [debug line = 182:33]
  %176 = call zeroext i1 @_ZNK3hls6streamI13stream_packetE5emptyEv(%"class.hls::stream"* @stream_in), !dbg !8143 ; [#uses=1 type=i1] [debug line = 183:7]
  br i1 %176, label %522, label %177, !dbg !8143  ; [debug line = 183:7]

; <label>:177                                     ; preds = %175
  call void @_ZN3hls6streamI13stream_packetE4readEv(%struct.stream_packet* sret %21, %"class.hls::stream"* @stream_in), !dbg !8144 ; [debug line = 185:15]
  %178 = call %struct.stream_packet* @_ZN13stream_packetaSERKS_(%struct.stream_packet* %recv_pkt, %struct.stream_packet* %21), !dbg !8144 ; [#uses=0 type=%struct.stream_packet*] [debug line = 185:15]
  %179 = getelementptr inbounds %struct.stream_packet* %recv_pkt, i32 0, i32 2, !dbg !8146 ; [#uses=1 type=%struct.ap_uint.12*] [debug line = 186:4]
  %180 = call %struct.ap_uint.12* @_ZN7ap_uintILi1EEaSERKS0_(%struct.ap_uint.12* %last, %struct.ap_uint.12* %179), !dbg !8146 ; [#uses=0 type=%struct.ap_uint.12*] [debug line = 186:4]
  br label %181, !dbg !8147                       ; [debug line = 187:4]

; <label>:181                                     ; preds = %184, %177
  %182 = bitcast %struct.ap_uint.12* %last to %struct.ap_int_base.13*, !dbg !8148 ; [#uses=1 type=%struct.ap_int_base.13*] [debug line = 187:10]
  %183 = call zeroext i1 @_ZNK11ap_int_baseILi1ELb0ELb1EEntEv(%struct.ap_int_base.13* %182), !dbg !8148 ; [#uses=1 type=i1] [debug line = 187:10]
  br i1 %183, label %184, label %188, !dbg !8148  ; [debug line = 187:10]

; <label>:184                                     ; preds = %181
  call void @_ZN3hls6streamI13stream_packetE4readEv(%struct.stream_packet* sret %22, %"class.hls::stream"* @stream_in), !dbg !8149 ; [debug line = 188:15]
  %185 = call %struct.stream_packet* @_ZN13stream_packetaSERKS_(%struct.stream_packet* %useless, %struct.stream_packet* %22), !dbg !8149 ; [#uses=0 type=%struct.stream_packet*] [debug line = 188:15]
  %186 = getelementptr inbounds %struct.stream_packet* %useless, i32 0, i32 2, !dbg !8151 ; [#uses=1 type=%struct.ap_uint.12*] [debug line = 189:5]
  %187 = call %struct.ap_uint.12* @_ZN7ap_uintILi1EEaSERKS0_(%struct.ap_uint.12* %last, %struct.ap_uint.12* %186), !dbg !8151 ; [#uses=0 type=%struct.ap_uint.12*] [debug line = 189:5]
  br label %181, !dbg !8152                       ; [debug line = 190:4]

; <label>:188                                     ; preds = %181
  call void @llvm.dbg.declare(metadata !{%struct.envelope* %temp}, metadata !8153), !dbg !8154 ; [debug line = 192:13] [debug variable = temp]
  call void @_ZN8envelopeC1Ev(%struct.envelope* %temp), !dbg !8155 ; [debug line = 192:17]
  call void @_Z18packet_to_envelopeP13stream_packetP8envelope(%struct.stream_packet* %recv_pkt, %struct.envelope* %temp), !dbg !8156 ; [debug line = 193:4]
  %189 = getelementptr inbounds %struct.envelope* %temp, i32 0, i32 1, !dbg !8157 ; [#uses=1 type=%struct.ap_uint*] [debug line = 194:7]
  %190 = bitcast %struct.ap_uint* %189 to %struct.ap_int_base*, !dbg !8157 ; [#uses=1 type=%struct.ap_int_base*] [debug line = 194:7]
  %191 = call zeroext i1 @_ZeqILi8ELb0EEbRK11ap_int_baseIXT_EXT0_EXleT_Li64EEEi(%struct.ap_int_base* %190, i32 1), !dbg !8157 ; [#uses=1 type=i1] [debug line = 194:7]
  br i1 %191, label %192, label %203, !dbg !8157  ; [debug line = 194:7]

; <label>:192                                     ; preds = %188
  %193 = getelementptr inbounds %struct.envelope* %temp, i32 0, i32 6, !dbg !8158 ; [#uses=1 type=%struct.ap_uint.6*] [debug line = 194:29]
  %194 = bitcast %struct.ap_uint.6* %193 to %struct.ap_int_base.7*, !dbg !8158 ; [#uses=1 type=%struct.ap_int_base.7*] [debug line = 194:29]
  %195 = call zeroext i1 @_ZeqILi16ELb0EEbRK11ap_int_baseIXT_EXT0_EXleT_Li64EEEi(%struct.ap_int_base.7* %194, i32 0), !dbg !8158 ; [#uses=1 type=i1] [debug line = 194:29]
  br i1 %195, label %196, label %203, !dbg !8158  ; [debug line = 194:29]

; <label>:196                                     ; preds = %192
  %197 = getelementptr inbounds %struct.envelope* %temp, i32 0, i32 0, !dbg !8159 ; [#uses=1 type=%struct.ap_uint*] [debug line = 194:47]
  %198 = bitcast %struct.ap_uint* %197 to %struct.ap_int_base*, !dbg !8159 ; [#uses=1 type=%struct.ap_int_base*] [debug line = 194:47]
  %199 = load i32* %5, align 4, !dbg !8159        ; [#uses=1 type=i32] [debug line = 194:47]
  %200 = call zeroext i1 @_ZeqILi8ELb0EEbRK11ap_int_baseIXT_EXT0_EXleT_Li64EEEi(%struct.ap_int_base* %198, i32 %199), !dbg !8159 ; [#uses=1 type=i1] [debug line = 194:47]
  br i1 %200, label %201, label %203, !dbg !8159  ; [debug line = 194:47]

; <label>:201                                     ; preds = %196
  store i2 -2, i2* @_ZZ8MPI_SendPii13MPI_DATA_TYPEiiiE5state, align 1, !dbg !8160 ; [debug line = 195:5]
  call void @_ZN7ap_uintILi64EEC1Ei(%struct.ap_uint.9* %23, i32 0), !dbg !8162 ; [debug line = 196:5]
  %202 = call %struct.ap_uint.9* @_ZN7ap_uintILi64EEaSERKS0_(%struct.ap_uint.9* @_ZZ8MPI_SendPii13MPI_DATA_TYPEiiiE4time, %struct.ap_uint.9* %23), !dbg !8162 ; [#uses=0 type=%struct.ap_uint.9*] [debug line = 196:5]
  store i32 0, i32* %1, !dbg !8163                ; [debug line = 197:5]
  br label %1399, !dbg !8163                      ; [debug line = 197:5]

; <label>:203                                     ; preds = %196, %192, %188
  %204 = getelementptr inbounds %struct.stream_packet* %recv_pkt, i32 0, i32 4, !dbg !8164 ; [#uses=1 type=%struct.ap_uint.15*] [debug line = 201:7]
  %205 = bitcast %struct.ap_uint.15* %204 to %struct.ap_int_base.16*, !dbg !8164 ; [#uses=1 type=%struct.ap_int_base.16*] [debug line = 201:7]
  call void @_ZN11ap_int_baseILi40ELb0ELb1EEclEii(%struct.ap_range_ref.18* sret %24, %struct.ap_int_base.16* %205, i32 7, i32 4), !dbg !8164 ; [debug line = 201:7]
  %206 = call zeroext i1 @_ZeqILi40ELb0EEbRK12ap_range_refIXT_EXT0_EEi(%struct.ap_range_ref.18* %24, i32 0), !dbg !8164 ; [#uses=1 type=i1] [debug line = 201:7]
  br i1 %206, label %207, label %521, !dbg !8164  ; [debug line = 201:7]

; <label>:207                                     ; preds = %203
  %208 = getelementptr inbounds %struct.stream_packet* %recv_pkt, i32 0, i32 4, !dbg !8165 ; [#uses=1 type=%struct.ap_uint.15*] [debug line = 202:8]
  %209 = bitcast %struct.ap_uint.15* %208 to %struct.ap_int_base.16*, !dbg !8165 ; [#uses=1 type=%struct.ap_int_base.16*] [debug line = 202:8]
  call void @_ZN11ap_int_baseILi40ELb0ELb1EEclEii(%struct.ap_range_ref.18* sret %25, %struct.ap_int_base.16* %209, i32 3, i32 0), !dbg !8165 ; [debug line = 202:8]
  %210 = call zeroext i1 @_ZeqILi40ELb0EEbRK12ap_range_refIXT_EXT0_EEi(%struct.ap_range_ref.18* %25, i32 0), !dbg !8165 ; [#uses=1 type=i1] [debug line = 202:8]
  br i1 %210, label %211, label %363, !dbg !8165  ; [debug line = 202:8]

; <label>:211                                     ; preds = %207
  call void @llvm.dbg.declare(metadata !{%struct.envelope* %temp_diff_src_or_type}, metadata !8167), !dbg !8169 ; [debug line = 203:15] [debug variable = temp_diff_src_or_type]
  call void @_ZN8envelopeC1Ev(%struct.envelope* %temp_diff_src_or_type), !dbg !8170 ; [debug line = 203:36]
  call void @_Z18packet_to_envelopeP13stream_packetP8envelope(%struct.stream_packet* %recv_pkt, %struct.envelope* %temp_diff_src_or_type), !dbg !8171 ; [debug line = 204:6]
  %212 = getelementptr inbounds %struct.envelope* %temp_diff_src_or_type, i32 0, i32 1, !dbg !8172 ; [#uses=1 type=%struct.ap_uint*] [debug line = 205:9]
  %213 = bitcast %struct.ap_uint* %212 to %struct.ap_int_base*, !dbg !8172 ; [#uses=1 type=%struct.ap_int_base*] [debug line = 205:9]
  %214 = call zeroext i1 @_ZeqILi8ELb0EEbRK11ap_int_baseIXT_EXT0_EXleT_Li64EEEi(%struct.ap_int_base* %213, i32 0), !dbg !8172 ; [#uses=1 type=i1] [debug line = 205:9]
  br i1 %214, label %215, label %286, !dbg !8172  ; [debug line = 205:9]

; <label>:215                                     ; preds = %211
  call void @llvm.dbg.declare(metadata !{i32* %i1}, metadata !8173), !dbg !8176 ; [debug line = 207:15] [debug variable = i]
  store i32 0, i32* %i1, align 4, !dbg !8177      ; [debug line = 207:21]
  br label %216, !dbg !8177                       ; [debug line = 207:21]

; <label>:216                                     ; preds = %276, %215
  %217 = load i32* %i1, align 4, !dbg !8177       ; [#uses=1 type=i32] [debug line = 207:21]
  %218 = load i32* @_ZL11int_req_num, align 4, !dbg !8177 ; [#uses=1 type=i32] [debug line = 207:21]
  %219 = icmp slt i32 %217, %218, !dbg !8177      ; [#uses=1 type=i1] [debug line = 207:21]
  br i1 %219, label %220, label %279, !dbg !8177  ; [debug line = 207:21]

; <label>:220                                     ; preds = %216
  %221 = load i32* %i1, align 4, !dbg !8178       ; [#uses=1 type=i32] [debug line = 208:11]
  %222 = sext i32 %221 to i64, !dbg !8178         ; [#uses=1 type=i64] [debug line = 208:11]
  %223 = getelementptr inbounds [512 x %struct.envelope]* @_ZL17int_request_array, i32 0, i64 %222, !dbg !8178 ; [#uses=1 type=%struct.envelope*] [debug line = 208:11]
  %224 = getelementptr inbounds %struct.envelope* %223, i32 0, i32 0, !dbg !8178 ; [#uses=1 type=%struct.ap_uint*] [debug line = 208:11]
  %225 = bitcast %struct.ap_uint* %224 to %struct.ap_int_base*, !dbg !8178 ; [#uses=1 type=%struct.ap_int_base*] [debug line = 208:11]
  %226 = getelementptr inbounds %struct.envelope* %temp_diff_src_or_type, i32 0, i32 0, !dbg !8178 ; [#uses=1 type=%struct.ap_uint*] [debug line = 208:11]
  %227 = bitcast %struct.ap_uint* %226 to %struct.ap_int_base*, !dbg !8178 ; [#uses=1 type=%struct.ap_int_base*] [debug line = 208:11]
  %228 = call zeroext i1 @_ZNK11ap_int_baseILi8ELb0ELb1EEeqILi8ELb0EEEbRKS_IXT_EXT0_EXleT_Li64EEE(%struct.ap_int_base* %225, %struct.ap_int_base* %227), !dbg !8178 ; [#uses=1 type=i1] [debug line = 208:11]
  br i1 %228, label %229, label %275, !dbg !8178  ; [debug line = 208:11]

; <label>:229                                     ; preds = %220
  %230 = load i32* %i1, align 4, !dbg !8180       ; [#uses=1 type=i32] [debug line = 209:8]
  %231 = sext i32 %230 to i64, !dbg !8180         ; [#uses=1 type=i64] [debug line = 209:8]
  %232 = getelementptr inbounds [512 x %struct.envelope]* @_ZL17int_request_array, i32 0, i64 %231, !dbg !8180 ; [#uses=1 type=%struct.envelope*] [debug line = 209:8]
  %233 = getelementptr inbounds %struct.envelope* %232, i32 0, i32 6, !dbg !8180 ; [#uses=1 type=%struct.ap_uint.6*] [debug line = 209:8]
  %234 = bitcast %struct.ap_uint.6* %233 to %struct.ap_int_base.7*, !dbg !8180 ; [#uses=1 type=%struct.ap_int_base.7*] [debug line = 209:8]
  %235 = getelementptr inbounds %struct.envelope* %temp_diff_src_or_type, i32 0, i32 6, !dbg !8180 ; [#uses=1 type=%struct.ap_uint.6*] [debug line = 209:8]
  %236 = bitcast %struct.ap_uint.6* %235 to %struct.ap_int_base.7*, !dbg !8180 ; [#uses=1 type=%struct.ap_int_base.7*] [debug line = 209:8]
  %237 = call zeroext i1 @_ZNK11ap_int_baseILi16ELb0ELb1EEeqILi16ELb0EEEbRKS_IXT_EXT0_EXleT_Li64EEE(%struct.ap_int_base.7* %234, %struct.ap_int_base.7* %236), !dbg !8180 ; [#uses=1 type=i1] [debug line = 209:8]
  br i1 %237, label %238, label %275, !dbg !8180  ; [debug line = 209:8]

; <label>:238                                     ; preds = %229
  %239 = load i32* %i1, align 4, !dbg !8181       ; [#uses=1 type=i32] [debug line = 210:8]
  %240 = sext i32 %239 to i64, !dbg !8181         ; [#uses=1 type=i64] [debug line = 210:8]
  %241 = getelementptr inbounds [512 x %struct.envelope]* @_ZL17int_request_array, i32 0, i64 %240, !dbg !8181 ; [#uses=1 type=%struct.envelope*] [debug line = 210:8]
  %242 = getelementptr inbounds %struct.envelope* %241, i32 0, i32 1, !dbg !8181 ; [#uses=1 type=%struct.ap_uint*] [debug line = 210:8]
  %243 = bitcast %struct.ap_uint* %242 to %struct.ap_int_base*, !dbg !8181 ; [#uses=1 type=%struct.ap_int_base*] [debug line = 210:8]
  %244 = getelementptr inbounds %struct.envelope* %temp_diff_src_or_type, i32 0, i32 1, !dbg !8181 ; [#uses=1 type=%struct.ap_uint*] [debug line = 210:8]
  %245 = bitcast %struct.ap_uint* %244 to %struct.ap_int_base*, !dbg !8181 ; [#uses=1 type=%struct.ap_int_base*] [debug line = 210:8]
  %246 = call zeroext i1 @_ZNK11ap_int_baseILi8ELb0ELb1EEeqILi8ELb0EEEbRKS_IXT_EXT0_EXleT_Li64EEE(%struct.ap_int_base* %243, %struct.ap_int_base* %245), !dbg !8181 ; [#uses=1 type=i1] [debug line = 210:8]
  br i1 %246, label %247, label %275, !dbg !8181  ; [debug line = 210:8]

; <label>:247                                     ; preds = %238
  %248 = load i32* %i1, align 4, !dbg !8182       ; [#uses=1 type=i32] [debug line = 211:8]
  %249 = sext i32 %248 to i64, !dbg !8182         ; [#uses=1 type=i64] [debug line = 211:8]
  %250 = getelementptr inbounds [512 x %struct.envelope]* @_ZL17int_request_array, i32 0, i64 %249, !dbg !8182 ; [#uses=1 type=%struct.envelope*] [debug line = 211:8]
  %251 = getelementptr inbounds %struct.envelope* %250, i32 0, i32 2, !dbg !8182 ; [#uses=1 type=%struct.ap_uint.0*] [debug line = 211:8]
  %252 = bitcast %struct.ap_uint.0* %251 to %struct.ap_int_base.1*, !dbg !8182 ; [#uses=1 type=%struct.ap_int_base.1*] [debug line = 211:8]
  %253 = getelementptr inbounds %struct.envelope* %temp_diff_src_or_type, i32 0, i32 2, !dbg !8182 ; [#uses=1 type=%struct.ap_uint.0*] [debug line = 211:8]
  %254 = bitcast %struct.ap_uint.0* %253 to %struct.ap_int_base.1*, !dbg !8182 ; [#uses=1 type=%struct.ap_int_base.1*] [debug line = 211:8]
  %255 = call zeroext i1 @_ZNK11ap_int_baseILi32ELb0ELb1EEeqILi32ELb0EEEbRKS_IXT_EXT0_EXleT_Li64EEE(%struct.ap_int_base.1* %252, %struct.ap_int_base.1* %254), !dbg !8182 ; [#uses=1 type=i1] [debug line = 211:8]
  br i1 %255, label %256, label %275, !dbg !8182  ; [debug line = 211:8]

; <label>:256                                     ; preds = %247
  %257 = load i32* %i1, align 4, !dbg !8183       ; [#uses=1 type=i32] [debug line = 212:8]
  %258 = sext i32 %257 to i64, !dbg !8183         ; [#uses=1 type=i64] [debug line = 212:8]
  %259 = getelementptr inbounds [512 x %struct.envelope]* @_ZL17int_request_array, i32 0, i64 %258, !dbg !8183 ; [#uses=1 type=%struct.envelope*] [debug line = 212:8]
  %260 = getelementptr inbounds %struct.envelope* %259, i32 0, i32 3, !dbg !8183 ; [#uses=1 type=%struct.ap_uint*] [debug line = 212:8]
  %261 = bitcast %struct.ap_uint* %260 to %struct.ap_int_base*, !dbg !8183 ; [#uses=1 type=%struct.ap_int_base*] [debug line = 212:8]
  %262 = getelementptr inbounds %struct.envelope* %temp_diff_src_or_type, i32 0, i32 3, !dbg !8183 ; [#uses=1 type=%struct.ap_uint*] [debug line = 212:8]
  %263 = bitcast %struct.ap_uint* %262 to %struct.ap_int_base*, !dbg !8183 ; [#uses=1 type=%struct.ap_int_base*] [debug line = 212:8]
  %264 = call zeroext i1 @_ZNK11ap_int_baseILi8ELb0ELb1EEeqILi8ELb0EEEbRKS_IXT_EXT0_EXleT_Li64EEE(%struct.ap_int_base* %261, %struct.ap_int_base* %263), !dbg !8183 ; [#uses=1 type=i1] [debug line = 212:8]
  br i1 %264, label %265, label %275, !dbg !8183  ; [debug line = 212:8]

; <label>:265                                     ; preds = %256
  %266 = load i32* %i1, align 4, !dbg !8184       ; [#uses=1 type=i32] [debug line = 213:8]
  %267 = sext i32 %266 to i64, !dbg !8184         ; [#uses=1 type=i64] [debug line = 213:8]
  %268 = getelementptr inbounds [512 x %struct.envelope]* @_ZL17int_request_array, i32 0, i64 %267, !dbg !8184 ; [#uses=1 type=%struct.envelope*] [debug line = 213:8]
  %269 = getelementptr inbounds %struct.envelope* %268, i32 0, i32 4, !dbg !8184 ; [#uses=1 type=%struct.ap_uint.3*] [debug line = 213:8]
  %270 = bitcast %struct.ap_uint.3* %269 to %struct.ap_int_base.4*, !dbg !8184 ; [#uses=1 type=%struct.ap_int_base.4*] [debug line = 213:8]
  %271 = getelementptr inbounds %struct.envelope* %temp_diff_src_or_type, i32 0, i32 4, !dbg !8184 ; [#uses=1 type=%struct.ap_uint.3*] [debug line = 213:8]
  %272 = bitcast %struct.ap_uint.3* %271 to %struct.ap_int_base.4*, !dbg !8184 ; [#uses=1 type=%struct.ap_int_base.4*] [debug line = 213:8]
  %273 = call zeroext i1 @_ZNK11ap_int_baseILi4ELb0ELb1EEeqILi4ELb0EEEbRKS_IXT_EXT0_EXleT_Li64EEE(%struct.ap_int_base.4* %270, %struct.ap_int_base.4* %272), !dbg !8184 ; [#uses=1 type=i1] [debug line = 213:8]
  br i1 %273, label %274, label %275, !dbg !8184  ; [debug line = 213:8]

; <label>:274                                     ; preds = %265
  store i32 0, i32* %1, !dbg !8185                ; [debug line = 214:9]
  br label %1399, !dbg !8185                      ; [debug line = 214:9]

; <label>:275                                     ; preds = %265, %256, %247, %238, %229, %220
  br label %276, !dbg !8186                       ; [debug line = 215:7]

; <label>:276                                     ; preds = %275
  %277 = load i32* %i1, align 4, !dbg !8187       ; [#uses=1 type=i32] [debug line = 207:40]
  %278 = add nsw i32 %277, 1, !dbg !8187          ; [#uses=1 type=i32] [debug line = 207:40]
  store i32 %278, i32* %i1, align 4, !dbg !8187   ; [debug line = 207:40]
  br label %216, !dbg !8187                       ; [debug line = 207:40]

; <label>:279                                     ; preds = %216
  %280 = load i32* @_ZL11int_req_num, align 4, !dbg !8188 ; [#uses=1 type=i32] [debug line = 216:7]
  %281 = sext i32 %280 to i64, !dbg !8188         ; [#uses=1 type=i64] [debug line = 216:7]
  %282 = getelementptr inbounds [512 x %struct.envelope]* @_ZL17int_request_array, i32 0, i64 %281, !dbg !8188 ; [#uses=1 type=%struct.envelope*] [debug line = 216:7]
  %283 = call %struct.envelope* @_ZN8envelopeaSERKS_(%struct.envelope* %282, %struct.envelope* %temp_diff_src_or_type), !dbg !8188 ; [#uses=0 type=%struct.envelope*] [debug line = 216:7]
  %284 = load i32* @_ZL11int_req_num, align 4, !dbg !8189 ; [#uses=1 type=i32] [debug line = 217:7]
  %285 = add nsw i32 %284, 1, !dbg !8189          ; [#uses=1 type=i32] [debug line = 217:7]
  store i32 %285, i32* @_ZL11int_req_num, align 4, !dbg !8189 ; [debug line = 217:7]
  br label %362, !dbg !8190                       ; [debug line = 218:6]

; <label>:286                                     ; preds = %211
  %287 = getelementptr inbounds %struct.envelope* %temp_diff_src_or_type, i32 0, i32 1, !dbg !8191 ; [#uses=1 type=%struct.ap_uint*] [debug line = 219:14]
  %288 = bitcast %struct.ap_uint* %287 to %struct.ap_int_base*, !dbg !8191 ; [#uses=1 type=%struct.ap_int_base*] [debug line = 219:14]
  %289 = call zeroext i1 @_ZeqILi8ELb0EEbRK11ap_int_baseIXT_EXT0_EXleT_Li64EEEi(%struct.ap_int_base* %288, i32 1), !dbg !8191 ; [#uses=1 type=i1] [debug line = 219:14]
  br i1 %289, label %290, label %361, !dbg !8191  ; [debug line = 219:14]

; <label>:290                                     ; preds = %286
  call void @llvm.dbg.declare(metadata !{i32* %i2}, metadata !8192), !dbg !8195 ; [debug line = 221:15] [debug variable = i]
  store i32 0, i32* %i2, align 4, !dbg !8196      ; [debug line = 221:21]
  br label %291, !dbg !8196                       ; [debug line = 221:21]

; <label>:291                                     ; preds = %351, %290
  %292 = load i32* %i2, align 4, !dbg !8196       ; [#uses=1 type=i32] [debug line = 221:21]
  %293 = load i32* @_ZL11int_clr_num, align 4, !dbg !8196 ; [#uses=1 type=i32] [debug line = 221:21]
  %294 = icmp slt i32 %292, %293, !dbg !8196      ; [#uses=1 type=i1] [debug line = 221:21]
  br i1 %294, label %295, label %354, !dbg !8196  ; [debug line = 221:21]

; <label>:295                                     ; preds = %291
  %296 = load i32* %i2, align 4, !dbg !8197       ; [#uses=1 type=i32] [debug line = 222:11]
  %297 = sext i32 %296 to i64, !dbg !8197         ; [#uses=1 type=i64] [debug line = 222:11]
  %298 = getelementptr inbounds [512 x %struct.envelope]* @_ZL17int_clr2snd_array, i32 0, i64 %297, !dbg !8197 ; [#uses=1 type=%struct.envelope*] [debug line = 222:11]
  %299 = getelementptr inbounds %struct.envelope* %298, i32 0, i32 0, !dbg !8197 ; [#uses=1 type=%struct.ap_uint*] [debug line = 222:11]
  %300 = bitcast %struct.ap_uint* %299 to %struct.ap_int_base*, !dbg !8197 ; [#uses=1 type=%struct.ap_int_base*] [debug line = 222:11]
  %301 = getelementptr inbounds %struct.envelope* %temp_diff_src_or_type, i32 0, i32 0, !dbg !8197 ; [#uses=1 type=%struct.ap_uint*] [debug line = 222:11]
  %302 = bitcast %struct.ap_uint* %301 to %struct.ap_int_base*, !dbg !8197 ; [#uses=1 type=%struct.ap_int_base*] [debug line = 222:11]
  %303 = call zeroext i1 @_ZNK11ap_int_baseILi8ELb0ELb1EEeqILi8ELb0EEEbRKS_IXT_EXT0_EXleT_Li64EEE(%struct.ap_int_base* %300, %struct.ap_int_base* %302), !dbg !8197 ; [#uses=1 type=i1] [debug line = 222:11]
  br i1 %303, label %304, label %350, !dbg !8197  ; [debug line = 222:11]

; <label>:304                                     ; preds = %295
  %305 = load i32* %i2, align 4, !dbg !8199       ; [#uses=1 type=i32] [debug line = 223:8]
  %306 = sext i32 %305 to i64, !dbg !8199         ; [#uses=1 type=i64] [debug line = 223:8]
  %307 = getelementptr inbounds [512 x %struct.envelope]* @_ZL17int_clr2snd_array, i32 0, i64 %306, !dbg !8199 ; [#uses=1 type=%struct.envelope*] [debug line = 223:8]
  %308 = getelementptr inbounds %struct.envelope* %307, i32 0, i32 6, !dbg !8199 ; [#uses=1 type=%struct.ap_uint.6*] [debug line = 223:8]
  %309 = bitcast %struct.ap_uint.6* %308 to %struct.ap_int_base.7*, !dbg !8199 ; [#uses=1 type=%struct.ap_int_base.7*] [debug line = 223:8]
  %310 = getelementptr inbounds %struct.envelope* %temp_diff_src_or_type, i32 0, i32 6, !dbg !8199 ; [#uses=1 type=%struct.ap_uint.6*] [debug line = 223:8]
  %311 = bitcast %struct.ap_uint.6* %310 to %struct.ap_int_base.7*, !dbg !8199 ; [#uses=1 type=%struct.ap_int_base.7*] [debug line = 223:8]
  %312 = call zeroext i1 @_ZNK11ap_int_baseILi16ELb0ELb1EEeqILi16ELb0EEEbRKS_IXT_EXT0_EXleT_Li64EEE(%struct.ap_int_base.7* %309, %struct.ap_int_base.7* %311), !dbg !8199 ; [#uses=1 type=i1] [debug line = 223:8]
  br i1 %312, label %313, label %350, !dbg !8199  ; [debug line = 223:8]

; <label>:313                                     ; preds = %304
  %314 = load i32* %i2, align 4, !dbg !8200       ; [#uses=1 type=i32] [debug line = 224:8]
  %315 = sext i32 %314 to i64, !dbg !8200         ; [#uses=1 type=i64] [debug line = 224:8]
  %316 = getelementptr inbounds [512 x %struct.envelope]* @_ZL17int_clr2snd_array, i32 0, i64 %315, !dbg !8200 ; [#uses=1 type=%struct.envelope*] [debug line = 224:8]
  %317 = getelementptr inbounds %struct.envelope* %316, i32 0, i32 1, !dbg !8200 ; [#uses=1 type=%struct.ap_uint*] [debug line = 224:8]
  %318 = bitcast %struct.ap_uint* %317 to %struct.ap_int_base*, !dbg !8200 ; [#uses=1 type=%struct.ap_int_base*] [debug line = 224:8]
  %319 = getelementptr inbounds %struct.envelope* %temp_diff_src_or_type, i32 0, i32 1, !dbg !8200 ; [#uses=1 type=%struct.ap_uint*] [debug line = 224:8]
  %320 = bitcast %struct.ap_uint* %319 to %struct.ap_int_base*, !dbg !8200 ; [#uses=1 type=%struct.ap_int_base*] [debug line = 224:8]
  %321 = call zeroext i1 @_ZNK11ap_int_baseILi8ELb0ELb1EEeqILi8ELb0EEEbRKS_IXT_EXT0_EXleT_Li64EEE(%struct.ap_int_base* %318, %struct.ap_int_base* %320), !dbg !8200 ; [#uses=1 type=i1] [debug line = 224:8]
  br i1 %321, label %322, label %350, !dbg !8200  ; [debug line = 224:8]

; <label>:322                                     ; preds = %313
  %323 = load i32* %i2, align 4, !dbg !8201       ; [#uses=1 type=i32] [debug line = 225:8]
  %324 = sext i32 %323 to i64, !dbg !8201         ; [#uses=1 type=i64] [debug line = 225:8]
  %325 = getelementptr inbounds [512 x %struct.envelope]* @_ZL17int_clr2snd_array, i32 0, i64 %324, !dbg !8201 ; [#uses=1 type=%struct.envelope*] [debug line = 225:8]
  %326 = getelementptr inbounds %struct.envelope* %325, i32 0, i32 2, !dbg !8201 ; [#uses=1 type=%struct.ap_uint.0*] [debug line = 225:8]
  %327 = bitcast %struct.ap_uint.0* %326 to %struct.ap_int_base.1*, !dbg !8201 ; [#uses=1 type=%struct.ap_int_base.1*] [debug line = 225:8]
  %328 = getelementptr inbounds %struct.envelope* %temp_diff_src_or_type, i32 0, i32 2, !dbg !8201 ; [#uses=1 type=%struct.ap_uint.0*] [debug line = 225:8]
  %329 = bitcast %struct.ap_uint.0* %328 to %struct.ap_int_base.1*, !dbg !8201 ; [#uses=1 type=%struct.ap_int_base.1*] [debug line = 225:8]
  %330 = call zeroext i1 @_ZNK11ap_int_baseILi32ELb0ELb1EEeqILi32ELb0EEEbRKS_IXT_EXT0_EXleT_Li64EEE(%struct.ap_int_base.1* %327, %struct.ap_int_base.1* %329), !dbg !8201 ; [#uses=1 type=i1] [debug line = 225:8]
  br i1 %330, label %331, label %350, !dbg !8201  ; [debug line = 225:8]

; <label>:331                                     ; preds = %322
  %332 = load i32* %i2, align 4, !dbg !8202       ; [#uses=1 type=i32] [debug line = 226:8]
  %333 = sext i32 %332 to i64, !dbg !8202         ; [#uses=1 type=i64] [debug line = 226:8]
  %334 = getelementptr inbounds [512 x %struct.envelope]* @_ZL17int_clr2snd_array, i32 0, i64 %333, !dbg !8202 ; [#uses=1 type=%struct.envelope*] [debug line = 226:8]
  %335 = getelementptr inbounds %struct.envelope* %334, i32 0, i32 3, !dbg !8202 ; [#uses=1 type=%struct.ap_uint*] [debug line = 226:8]
  %336 = bitcast %struct.ap_uint* %335 to %struct.ap_int_base*, !dbg !8202 ; [#uses=1 type=%struct.ap_int_base*] [debug line = 226:8]
  %337 = getelementptr inbounds %struct.envelope* %temp_diff_src_or_type, i32 0, i32 3, !dbg !8202 ; [#uses=1 type=%struct.ap_uint*] [debug line = 226:8]
  %338 = bitcast %struct.ap_uint* %337 to %struct.ap_int_base*, !dbg !8202 ; [#uses=1 type=%struct.ap_int_base*] [debug line = 226:8]
  %339 = call zeroext i1 @_ZNK11ap_int_baseILi8ELb0ELb1EEeqILi8ELb0EEEbRKS_IXT_EXT0_EXleT_Li64EEE(%struct.ap_int_base* %336, %struct.ap_int_base* %338), !dbg !8202 ; [#uses=1 type=i1] [debug line = 226:8]
  br i1 %339, label %340, label %350, !dbg !8202  ; [debug line = 226:8]

; <label>:340                                     ; preds = %331
  %341 = load i32* %i2, align 4, !dbg !8203       ; [#uses=1 type=i32] [debug line = 227:8]
  %342 = sext i32 %341 to i64, !dbg !8203         ; [#uses=1 type=i64] [debug line = 227:8]
  %343 = getelementptr inbounds [512 x %struct.envelope]* @_ZL17int_clr2snd_array, i32 0, i64 %342, !dbg !8203 ; [#uses=1 type=%struct.envelope*] [debug line = 227:8]
  %344 = getelementptr inbounds %struct.envelope* %343, i32 0, i32 4, !dbg !8203 ; [#uses=1 type=%struct.ap_uint.3*] [debug line = 227:8]
  %345 = bitcast %struct.ap_uint.3* %344 to %struct.ap_int_base.4*, !dbg !8203 ; [#uses=1 type=%struct.ap_int_base.4*] [debug line = 227:8]
  %346 = getelementptr inbounds %struct.envelope* %temp_diff_src_or_type, i32 0, i32 4, !dbg !8203 ; [#uses=1 type=%struct.ap_uint.3*] [debug line = 227:8]
  %347 = bitcast %struct.ap_uint.3* %346 to %struct.ap_int_base.4*, !dbg !8203 ; [#uses=1 type=%struct.ap_int_base.4*] [debug line = 227:8]
  %348 = call zeroext i1 @_ZNK11ap_int_baseILi4ELb0ELb1EEeqILi4ELb0EEEbRKS_IXT_EXT0_EXleT_Li64EEE(%struct.ap_int_base.4* %345, %struct.ap_int_base.4* %347), !dbg !8203 ; [#uses=1 type=i1] [debug line = 227:8]
  br i1 %348, label %349, label %350, !dbg !8203  ; [debug line = 227:8]

; <label>:349                                     ; preds = %340
  store i32 0, i32* %1, !dbg !8204                ; [debug line = 228:9]
  br label %1399, !dbg !8204                      ; [debug line = 228:9]

; <label>:350                                     ; preds = %340, %331, %322, %313, %304, %295
  br label %351, !dbg !8205                       ; [debug line = 229:7]

; <label>:351                                     ; preds = %350
  %352 = load i32* %i2, align 4, !dbg !8206       ; [#uses=1 type=i32] [debug line = 221:40]
  %353 = add nsw i32 %352, 1, !dbg !8206          ; [#uses=1 type=i32] [debug line = 221:40]
  store i32 %353, i32* %i2, align 4, !dbg !8206   ; [debug line = 221:40]
  br label %291, !dbg !8206                       ; [debug line = 221:40]

; <label>:354                                     ; preds = %291
  %355 = load i32* @_ZL11int_clr_num, align 4, !dbg !8207 ; [#uses=1 type=i32] [debug line = 230:7]
  %356 = sext i32 %355 to i64, !dbg !8207         ; [#uses=1 type=i64] [debug line = 230:7]
  %357 = getelementptr inbounds [512 x %struct.envelope]* @_ZL17int_clr2snd_array, i32 0, i64 %356, !dbg !8207 ; [#uses=1 type=%struct.envelope*] [debug line = 230:7]
  %358 = call %struct.envelope* @_ZN8envelopeaSERKS_(%struct.envelope* %357, %struct.envelope* %temp_diff_src_or_type), !dbg !8207 ; [#uses=0 type=%struct.envelope*] [debug line = 230:7]
  %359 = load i32* @_ZL11int_clr_num, align 4, !dbg !8208 ; [#uses=1 type=i32] [debug line = 231:7]
  %360 = add nsw i32 %359, 1, !dbg !8208          ; [#uses=1 type=i32] [debug line = 231:7]
  store i32 %360, i32* @_ZL11int_clr_num, align 4, !dbg !8208 ; [debug line = 231:7]
  br label %361, !dbg !8209                       ; [debug line = 232:6]

; <label>:361                                     ; preds = %354, %286
  br label %362

; <label>:362                                     ; preds = %361, %279
  store i32 0, i32* %1, !dbg !8210                ; [debug line = 233:6]
  br label %1399, !dbg !8210                      ; [debug line = 233:6]

; <label>:363                                     ; preds = %207
  %364 = getelementptr inbounds %struct.stream_packet* %recv_pkt, i32 0, i32 4, !dbg !8211 ; [#uses=1 type=%struct.ap_uint.15*] [debug line = 235:13]
  %365 = bitcast %struct.ap_uint.15* %364 to %struct.ap_int_base.16*, !dbg !8211 ; [#uses=1 type=%struct.ap_int_base.16*] [debug line = 235:13]
  call void @_ZN11ap_int_baseILi40ELb0ELb1EEclEii(%struct.ap_range_ref.18* sret %26, %struct.ap_int_base.16* %365, i32 3, i32 0), !dbg !8211 ; [debug line = 235:13]
  %366 = call zeroext i1 @_ZeqILi40ELb0EEbRK12ap_range_refIXT_EXT0_EEi(%struct.ap_range_ref.18* %26, i32 1), !dbg !8211 ; [#uses=1 type=i1] [debug line = 235:13]
  br i1 %366, label %367, label %519, !dbg !8211  ; [debug line = 235:13]

; <label>:367                                     ; preds = %363
  call void @llvm.dbg.declare(metadata !{%struct.envelope* %temp_diff_src_or_type3}, metadata !8212), !dbg !8214 ; [debug line = 236:15] [debug variable = temp_diff_src_or_type]
  call void @_ZN8envelopeC1Ev(%struct.envelope* %temp_diff_src_or_type3), !dbg !8215 ; [debug line = 236:36]
  call void @_Z18packet_to_envelopeP13stream_packetP8envelope(%struct.stream_packet* %recv_pkt, %struct.envelope* %temp_diff_src_or_type3), !dbg !8216 ; [debug line = 237:6]
  %368 = getelementptr inbounds %struct.envelope* %temp_diff_src_or_type3, i32 0, i32 1, !dbg !8217 ; [#uses=1 type=%struct.ap_uint*] [debug line = 238:9]
  %369 = bitcast %struct.ap_uint* %368 to %struct.ap_int_base*, !dbg !8217 ; [#uses=1 type=%struct.ap_int_base*] [debug line = 238:9]
  %370 = call zeroext i1 @_ZeqILi8ELb0EEbRK11ap_int_baseIXT_EXT0_EXleT_Li64EEEi(%struct.ap_int_base* %369, i32 0), !dbg !8217 ; [#uses=1 type=i1] [debug line = 238:9]
  br i1 %370, label %371, label %442, !dbg !8217  ; [debug line = 238:9]

; <label>:371                                     ; preds = %367
  call void @llvm.dbg.declare(metadata !{i32* %i4}, metadata !8218), !dbg !8221 ; [debug line = 239:15] [debug variable = i]
  store i32 0, i32* %i4, align 4, !dbg !8222      ; [debug line = 239:21]
  br label %372, !dbg !8222                       ; [debug line = 239:21]

; <label>:372                                     ; preds = %432, %371
  %373 = load i32* %i4, align 4, !dbg !8222       ; [#uses=1 type=i32] [debug line = 239:21]
  %374 = load i32* @_ZL13float_req_num, align 4, !dbg !8222 ; [#uses=1 type=i32] [debug line = 239:21]
  %375 = icmp slt i32 %373, %374, !dbg !8222      ; [#uses=1 type=i1] [debug line = 239:21]
  br i1 %375, label %376, label %435, !dbg !8222  ; [debug line = 239:21]

; <label>:376                                     ; preds = %372
  %377 = load i32* %i4, align 4, !dbg !8223       ; [#uses=1 type=i32] [debug line = 240:11]
  %378 = sext i32 %377 to i64, !dbg !8223         ; [#uses=1 type=i64] [debug line = 240:11]
  %379 = getelementptr inbounds [512 x %struct.envelope]* @_ZL19float_request_array, i32 0, i64 %378, !dbg !8223 ; [#uses=1 type=%struct.envelope*] [debug line = 240:11]
  %380 = getelementptr inbounds %struct.envelope* %379, i32 0, i32 0, !dbg !8223 ; [#uses=1 type=%struct.ap_uint*] [debug line = 240:11]
  %381 = bitcast %struct.ap_uint* %380 to %struct.ap_int_base*, !dbg !8223 ; [#uses=1 type=%struct.ap_int_base*] [debug line = 240:11]
  %382 = getelementptr inbounds %struct.envelope* %temp_diff_src_or_type3, i32 0, i32 0, !dbg !8223 ; [#uses=1 type=%struct.ap_uint*] [debug line = 240:11]
  %383 = bitcast %struct.ap_uint* %382 to %struct.ap_int_base*, !dbg !8223 ; [#uses=1 type=%struct.ap_int_base*] [debug line = 240:11]
  %384 = call zeroext i1 @_ZNK11ap_int_baseILi8ELb0ELb1EEeqILi8ELb0EEEbRKS_IXT_EXT0_EXleT_Li64EEE(%struct.ap_int_base* %381, %struct.ap_int_base* %383), !dbg !8223 ; [#uses=1 type=i1] [debug line = 240:11]
  br i1 %384, label %385, label %431, !dbg !8223  ; [debug line = 240:11]

; <label>:385                                     ; preds = %376
  %386 = load i32* %i4, align 4, !dbg !8225       ; [#uses=1 type=i32] [debug line = 241:8]
  %387 = sext i32 %386 to i64, !dbg !8225         ; [#uses=1 type=i64] [debug line = 241:8]
  %388 = getelementptr inbounds [512 x %struct.envelope]* @_ZL19float_request_array, i32 0, i64 %387, !dbg !8225 ; [#uses=1 type=%struct.envelope*] [debug line = 241:8]
  %389 = getelementptr inbounds %struct.envelope* %388, i32 0, i32 6, !dbg !8225 ; [#uses=1 type=%struct.ap_uint.6*] [debug line = 241:8]
  %390 = bitcast %struct.ap_uint.6* %389 to %struct.ap_int_base.7*, !dbg !8225 ; [#uses=1 type=%struct.ap_int_base.7*] [debug line = 241:8]
  %391 = getelementptr inbounds %struct.envelope* %temp_diff_src_or_type3, i32 0, i32 6, !dbg !8225 ; [#uses=1 type=%struct.ap_uint.6*] [debug line = 241:8]
  %392 = bitcast %struct.ap_uint.6* %391 to %struct.ap_int_base.7*, !dbg !8225 ; [#uses=1 type=%struct.ap_int_base.7*] [debug line = 241:8]
  %393 = call zeroext i1 @_ZNK11ap_int_baseILi16ELb0ELb1EEeqILi16ELb0EEEbRKS_IXT_EXT0_EXleT_Li64EEE(%struct.ap_int_base.7* %390, %struct.ap_int_base.7* %392), !dbg !8225 ; [#uses=1 type=i1] [debug line = 241:8]
  br i1 %393, label %394, label %431, !dbg !8225  ; [debug line = 241:8]

; <label>:394                                     ; preds = %385
  %395 = load i32* %i4, align 4, !dbg !8226       ; [#uses=1 type=i32] [debug line = 242:8]
  %396 = sext i32 %395 to i64, !dbg !8226         ; [#uses=1 type=i64] [debug line = 242:8]
  %397 = getelementptr inbounds [512 x %struct.envelope]* @_ZL19float_request_array, i32 0, i64 %396, !dbg !8226 ; [#uses=1 type=%struct.envelope*] [debug line = 242:8]
  %398 = getelementptr inbounds %struct.envelope* %397, i32 0, i32 1, !dbg !8226 ; [#uses=1 type=%struct.ap_uint*] [debug line = 242:8]
  %399 = bitcast %struct.ap_uint* %398 to %struct.ap_int_base*, !dbg !8226 ; [#uses=1 type=%struct.ap_int_base*] [debug line = 242:8]
  %400 = getelementptr inbounds %struct.envelope* %temp_diff_src_or_type3, i32 0, i32 1, !dbg !8226 ; [#uses=1 type=%struct.ap_uint*] [debug line = 242:8]
  %401 = bitcast %struct.ap_uint* %400 to %struct.ap_int_base*, !dbg !8226 ; [#uses=1 type=%struct.ap_int_base*] [debug line = 242:8]
  %402 = call zeroext i1 @_ZNK11ap_int_baseILi8ELb0ELb1EEeqILi8ELb0EEEbRKS_IXT_EXT0_EXleT_Li64EEE(%struct.ap_int_base* %399, %struct.ap_int_base* %401), !dbg !8226 ; [#uses=1 type=i1] [debug line = 242:8]
  br i1 %402, label %403, label %431, !dbg !8226  ; [debug line = 242:8]

; <label>:403                                     ; preds = %394
  %404 = load i32* %i4, align 4, !dbg !8227       ; [#uses=1 type=i32] [debug line = 243:8]
  %405 = sext i32 %404 to i64, !dbg !8227         ; [#uses=1 type=i64] [debug line = 243:8]
  %406 = getelementptr inbounds [512 x %struct.envelope]* @_ZL19float_request_array, i32 0, i64 %405, !dbg !8227 ; [#uses=1 type=%struct.envelope*] [debug line = 243:8]
  %407 = getelementptr inbounds %struct.envelope* %406, i32 0, i32 2, !dbg !8227 ; [#uses=1 type=%struct.ap_uint.0*] [debug line = 243:8]
  %408 = bitcast %struct.ap_uint.0* %407 to %struct.ap_int_base.1*, !dbg !8227 ; [#uses=1 type=%struct.ap_int_base.1*] [debug line = 243:8]
  %409 = getelementptr inbounds %struct.envelope* %temp_diff_src_or_type3, i32 0, i32 2, !dbg !8227 ; [#uses=1 type=%struct.ap_uint.0*] [debug line = 243:8]
  %410 = bitcast %struct.ap_uint.0* %409 to %struct.ap_int_base.1*, !dbg !8227 ; [#uses=1 type=%struct.ap_int_base.1*] [debug line = 243:8]
  %411 = call zeroext i1 @_ZNK11ap_int_baseILi32ELb0ELb1EEeqILi32ELb0EEEbRKS_IXT_EXT0_EXleT_Li64EEE(%struct.ap_int_base.1* %408, %struct.ap_int_base.1* %410), !dbg !8227 ; [#uses=1 type=i1] [debug line = 243:8]
  br i1 %411, label %412, label %431, !dbg !8227  ; [debug line = 243:8]

; <label>:412                                     ; preds = %403
  %413 = load i32* %i4, align 4, !dbg !8228       ; [#uses=1 type=i32] [debug line = 244:8]
  %414 = sext i32 %413 to i64, !dbg !8228         ; [#uses=1 type=i64] [debug line = 244:8]
  %415 = getelementptr inbounds [512 x %struct.envelope]* @_ZL19float_request_array, i32 0, i64 %414, !dbg !8228 ; [#uses=1 type=%struct.envelope*] [debug line = 244:8]
  %416 = getelementptr inbounds %struct.envelope* %415, i32 0, i32 3, !dbg !8228 ; [#uses=1 type=%struct.ap_uint*] [debug line = 244:8]
  %417 = bitcast %struct.ap_uint* %416 to %struct.ap_int_base*, !dbg !8228 ; [#uses=1 type=%struct.ap_int_base*] [debug line = 244:8]
  %418 = getelementptr inbounds %struct.envelope* %temp_diff_src_or_type3, i32 0, i32 3, !dbg !8228 ; [#uses=1 type=%struct.ap_uint*] [debug line = 244:8]
  %419 = bitcast %struct.ap_uint* %418 to %struct.ap_int_base*, !dbg !8228 ; [#uses=1 type=%struct.ap_int_base*] [debug line = 244:8]
  %420 = call zeroext i1 @_ZNK11ap_int_baseILi8ELb0ELb1EEeqILi8ELb0EEEbRKS_IXT_EXT0_EXleT_Li64EEE(%struct.ap_int_base* %417, %struct.ap_int_base* %419), !dbg !8228 ; [#uses=1 type=i1] [debug line = 244:8]
  br i1 %420, label %421, label %431, !dbg !8228  ; [debug line = 244:8]

; <label>:421                                     ; preds = %412
  %422 = load i32* %i4, align 4, !dbg !8229       ; [#uses=1 type=i32] [debug line = 245:8]
  %423 = sext i32 %422 to i64, !dbg !8229         ; [#uses=1 type=i64] [debug line = 245:8]
  %424 = getelementptr inbounds [512 x %struct.envelope]* @_ZL19float_request_array, i32 0, i64 %423, !dbg !8229 ; [#uses=1 type=%struct.envelope*] [debug line = 245:8]
  %425 = getelementptr inbounds %struct.envelope* %424, i32 0, i32 4, !dbg !8229 ; [#uses=1 type=%struct.ap_uint.3*] [debug line = 245:8]
  %426 = bitcast %struct.ap_uint.3* %425 to %struct.ap_int_base.4*, !dbg !8229 ; [#uses=1 type=%struct.ap_int_base.4*] [debug line = 245:8]
  %427 = getelementptr inbounds %struct.envelope* %temp_diff_src_or_type3, i32 0, i32 4, !dbg !8229 ; [#uses=1 type=%struct.ap_uint.3*] [debug line = 245:8]
  %428 = bitcast %struct.ap_uint.3* %427 to %struct.ap_int_base.4*, !dbg !8229 ; [#uses=1 type=%struct.ap_int_base.4*] [debug line = 245:8]
  %429 = call zeroext i1 @_ZNK11ap_int_baseILi4ELb0ELb1EEeqILi4ELb0EEEbRKS_IXT_EXT0_EXleT_Li64EEE(%struct.ap_int_base.4* %426, %struct.ap_int_base.4* %428), !dbg !8229 ; [#uses=1 type=i1] [debug line = 245:8]
  br i1 %429, label %430, label %431, !dbg !8229  ; [debug line = 245:8]

; <label>:430                                     ; preds = %421
  store i32 0, i32* %1, !dbg !8230                ; [debug line = 246:9]
  br label %1399, !dbg !8230                      ; [debug line = 246:9]

; <label>:431                                     ; preds = %421, %412, %403, %394, %385, %376
  br label %432, !dbg !8231                       ; [debug line = 247:7]

; <label>:432                                     ; preds = %431
  %433 = load i32* %i4, align 4, !dbg !8232       ; [#uses=1 type=i32] [debug line = 239:42]
  %434 = add nsw i32 %433, 1, !dbg !8232          ; [#uses=1 type=i32] [debug line = 239:42]
  store i32 %434, i32* %i4, align 4, !dbg !8232   ; [debug line = 239:42]
  br label %372, !dbg !8232                       ; [debug line = 239:42]

; <label>:435                                     ; preds = %372
  %436 = load i32* @_ZL13float_req_num, align 4, !dbg !8233 ; [#uses=1 type=i32] [debug line = 248:7]
  %437 = sext i32 %436 to i64, !dbg !8233         ; [#uses=1 type=i64] [debug line = 248:7]
  %438 = getelementptr inbounds [512 x %struct.envelope]* @_ZL19float_request_array, i32 0, i64 %437, !dbg !8233 ; [#uses=1 type=%struct.envelope*] [debug line = 248:7]
  %439 = call %struct.envelope* @_ZN8envelopeaSERKS_(%struct.envelope* %438, %struct.envelope* %temp_diff_src_or_type3), !dbg !8233 ; [#uses=0 type=%struct.envelope*] [debug line = 248:7]
  %440 = load i32* @_ZL13float_req_num, align 4, !dbg !8234 ; [#uses=1 type=i32] [debug line = 249:7]
  %441 = add nsw i32 %440, 1, !dbg !8234          ; [#uses=1 type=i32] [debug line = 249:7]
  store i32 %441, i32* @_ZL13float_req_num, align 4, !dbg !8234 ; [debug line = 249:7]
  br label %518, !dbg !8235                       ; [debug line = 250:6]

; <label>:442                                     ; preds = %367
  %443 = getelementptr inbounds %struct.envelope* %temp_diff_src_or_type3, i32 0, i32 1, !dbg !8236 ; [#uses=1 type=%struct.ap_uint*] [debug line = 251:14]
  %444 = bitcast %struct.ap_uint* %443 to %struct.ap_int_base*, !dbg !8236 ; [#uses=1 type=%struct.ap_int_base*] [debug line = 251:14]
  %445 = call zeroext i1 @_ZeqILi8ELb0EEbRK11ap_int_baseIXT_EXT0_EXleT_Li64EEEi(%struct.ap_int_base* %444, i32 1), !dbg !8236 ; [#uses=1 type=i1] [debug line = 251:14]
  br i1 %445, label %446, label %517, !dbg !8236  ; [debug line = 251:14]

; <label>:446                                     ; preds = %442
  call void @llvm.dbg.declare(metadata !{i32* %i5}, metadata !8237), !dbg !8240 ; [debug line = 252:15] [debug variable = i]
  store i32 0, i32* %i5, align 4, !dbg !8241      ; [debug line = 252:21]
  br label %447, !dbg !8241                       ; [debug line = 252:21]

; <label>:447                                     ; preds = %507, %446
  %448 = load i32* %i5, align 4, !dbg !8241       ; [#uses=1 type=i32] [debug line = 252:21]
  %449 = load i32* @_ZL13float_clr_num, align 4, !dbg !8241 ; [#uses=1 type=i32] [debug line = 252:21]
  %450 = icmp slt i32 %448, %449, !dbg !8241      ; [#uses=1 type=i1] [debug line = 252:21]
  br i1 %450, label %451, label %510, !dbg !8241  ; [debug line = 252:21]

; <label>:451                                     ; preds = %447
  %452 = load i32* %i5, align 4, !dbg !8242       ; [#uses=1 type=i32] [debug line = 253:11]
  %453 = sext i32 %452 to i64, !dbg !8242         ; [#uses=1 type=i64] [debug line = 253:11]
  %454 = getelementptr inbounds [512 x %struct.envelope]* @_ZL19float_clr2snd_array, i32 0, i64 %453, !dbg !8242 ; [#uses=1 type=%struct.envelope*] [debug line = 253:11]
  %455 = getelementptr inbounds %struct.envelope* %454, i32 0, i32 0, !dbg !8242 ; [#uses=1 type=%struct.ap_uint*] [debug line = 253:11]
  %456 = bitcast %struct.ap_uint* %455 to %struct.ap_int_base*, !dbg !8242 ; [#uses=1 type=%struct.ap_int_base*] [debug line = 253:11]
  %457 = getelementptr inbounds %struct.envelope* %temp_diff_src_or_type3, i32 0, i32 0, !dbg !8242 ; [#uses=1 type=%struct.ap_uint*] [debug line = 253:11]
  %458 = bitcast %struct.ap_uint* %457 to %struct.ap_int_base*, !dbg !8242 ; [#uses=1 type=%struct.ap_int_base*] [debug line = 253:11]
  %459 = call zeroext i1 @_ZNK11ap_int_baseILi8ELb0ELb1EEeqILi8ELb0EEEbRKS_IXT_EXT0_EXleT_Li64EEE(%struct.ap_int_base* %456, %struct.ap_int_base* %458), !dbg !8242 ; [#uses=1 type=i1] [debug line = 253:11]
  br i1 %459, label %460, label %506, !dbg !8242  ; [debug line = 253:11]

; <label>:460                                     ; preds = %451
  %461 = load i32* %i5, align 4, !dbg !8244       ; [#uses=1 type=i32] [debug line = 254:8]
  %462 = sext i32 %461 to i64, !dbg !8244         ; [#uses=1 type=i64] [debug line = 254:8]
  %463 = getelementptr inbounds [512 x %struct.envelope]* @_ZL19float_clr2snd_array, i32 0, i64 %462, !dbg !8244 ; [#uses=1 type=%struct.envelope*] [debug line = 254:8]
  %464 = getelementptr inbounds %struct.envelope* %463, i32 0, i32 6, !dbg !8244 ; [#uses=1 type=%struct.ap_uint.6*] [debug line = 254:8]
  %465 = bitcast %struct.ap_uint.6* %464 to %struct.ap_int_base.7*, !dbg !8244 ; [#uses=1 type=%struct.ap_int_base.7*] [debug line = 254:8]
  %466 = getelementptr inbounds %struct.envelope* %temp_diff_src_or_type3, i32 0, i32 6, !dbg !8244 ; [#uses=1 type=%struct.ap_uint.6*] [debug line = 254:8]
  %467 = bitcast %struct.ap_uint.6* %466 to %struct.ap_int_base.7*, !dbg !8244 ; [#uses=1 type=%struct.ap_int_base.7*] [debug line = 254:8]
  %468 = call zeroext i1 @_ZNK11ap_int_baseILi16ELb0ELb1EEeqILi16ELb0EEEbRKS_IXT_EXT0_EXleT_Li64EEE(%struct.ap_int_base.7* %465, %struct.ap_int_base.7* %467), !dbg !8244 ; [#uses=1 type=i1] [debug line = 254:8]
  br i1 %468, label %469, label %506, !dbg !8244  ; [debug line = 254:8]

; <label>:469                                     ; preds = %460
  %470 = load i32* %i5, align 4, !dbg !8245       ; [#uses=1 type=i32] [debug line = 255:8]
  %471 = sext i32 %470 to i64, !dbg !8245         ; [#uses=1 type=i64] [debug line = 255:8]
  %472 = getelementptr inbounds [512 x %struct.envelope]* @_ZL19float_clr2snd_array, i32 0, i64 %471, !dbg !8245 ; [#uses=1 type=%struct.envelope*] [debug line = 255:8]
  %473 = getelementptr inbounds %struct.envelope* %472, i32 0, i32 1, !dbg !8245 ; [#uses=1 type=%struct.ap_uint*] [debug line = 255:8]
  %474 = bitcast %struct.ap_uint* %473 to %struct.ap_int_base*, !dbg !8245 ; [#uses=1 type=%struct.ap_int_base*] [debug line = 255:8]
  %475 = getelementptr inbounds %struct.envelope* %temp_diff_src_or_type3, i32 0, i32 1, !dbg !8245 ; [#uses=1 type=%struct.ap_uint*] [debug line = 255:8]
  %476 = bitcast %struct.ap_uint* %475 to %struct.ap_int_base*, !dbg !8245 ; [#uses=1 type=%struct.ap_int_base*] [debug line = 255:8]
  %477 = call zeroext i1 @_ZNK11ap_int_baseILi8ELb0ELb1EEeqILi8ELb0EEEbRKS_IXT_EXT0_EXleT_Li64EEE(%struct.ap_int_base* %474, %struct.ap_int_base* %476), !dbg !8245 ; [#uses=1 type=i1] [debug line = 255:8]
  br i1 %477, label %478, label %506, !dbg !8245  ; [debug line = 255:8]

; <label>:478                                     ; preds = %469
  %479 = load i32* %i5, align 4, !dbg !8246       ; [#uses=1 type=i32] [debug line = 256:8]
  %480 = sext i32 %479 to i64, !dbg !8246         ; [#uses=1 type=i64] [debug line = 256:8]
  %481 = getelementptr inbounds [512 x %struct.envelope]* @_ZL19float_clr2snd_array, i32 0, i64 %480, !dbg !8246 ; [#uses=1 type=%struct.envelope*] [debug line = 256:8]
  %482 = getelementptr inbounds %struct.envelope* %481, i32 0, i32 2, !dbg !8246 ; [#uses=1 type=%struct.ap_uint.0*] [debug line = 256:8]
  %483 = bitcast %struct.ap_uint.0* %482 to %struct.ap_int_base.1*, !dbg !8246 ; [#uses=1 type=%struct.ap_int_base.1*] [debug line = 256:8]
  %484 = getelementptr inbounds %struct.envelope* %temp_diff_src_or_type3, i32 0, i32 2, !dbg !8246 ; [#uses=1 type=%struct.ap_uint.0*] [debug line = 256:8]
  %485 = bitcast %struct.ap_uint.0* %484 to %struct.ap_int_base.1*, !dbg !8246 ; [#uses=1 type=%struct.ap_int_base.1*] [debug line = 256:8]
  %486 = call zeroext i1 @_ZNK11ap_int_baseILi32ELb0ELb1EEeqILi32ELb0EEEbRKS_IXT_EXT0_EXleT_Li64EEE(%struct.ap_int_base.1* %483, %struct.ap_int_base.1* %485), !dbg !8246 ; [#uses=1 type=i1] [debug line = 256:8]
  br i1 %486, label %487, label %506, !dbg !8246  ; [debug line = 256:8]

; <label>:487                                     ; preds = %478
  %488 = load i32* %i5, align 4, !dbg !8247       ; [#uses=1 type=i32] [debug line = 257:8]
  %489 = sext i32 %488 to i64, !dbg !8247         ; [#uses=1 type=i64] [debug line = 257:8]
  %490 = getelementptr inbounds [512 x %struct.envelope]* @_ZL19float_clr2snd_array, i32 0, i64 %489, !dbg !8247 ; [#uses=1 type=%struct.envelope*] [debug line = 257:8]
  %491 = getelementptr inbounds %struct.envelope* %490, i32 0, i32 3, !dbg !8247 ; [#uses=1 type=%struct.ap_uint*] [debug line = 257:8]
  %492 = bitcast %struct.ap_uint* %491 to %struct.ap_int_base*, !dbg !8247 ; [#uses=1 type=%struct.ap_int_base*] [debug line = 257:8]
  %493 = getelementptr inbounds %struct.envelope* %temp_diff_src_or_type3, i32 0, i32 3, !dbg !8247 ; [#uses=1 type=%struct.ap_uint*] [debug line = 257:8]
  %494 = bitcast %struct.ap_uint* %493 to %struct.ap_int_base*, !dbg !8247 ; [#uses=1 type=%struct.ap_int_base*] [debug line = 257:8]
  %495 = call zeroext i1 @_ZNK11ap_int_baseILi8ELb0ELb1EEeqILi8ELb0EEEbRKS_IXT_EXT0_EXleT_Li64EEE(%struct.ap_int_base* %492, %struct.ap_int_base* %494), !dbg !8247 ; [#uses=1 type=i1] [debug line = 257:8]
  br i1 %495, label %496, label %506, !dbg !8247  ; [debug line = 257:8]

; <label>:496                                     ; preds = %487
  %497 = load i32* %i5, align 4, !dbg !8248       ; [#uses=1 type=i32] [debug line = 258:8]
  %498 = sext i32 %497 to i64, !dbg !8248         ; [#uses=1 type=i64] [debug line = 258:8]
  %499 = getelementptr inbounds [512 x %struct.envelope]* @_ZL19float_clr2snd_array, i32 0, i64 %498, !dbg !8248 ; [#uses=1 type=%struct.envelope*] [debug line = 258:8]
  %500 = getelementptr inbounds %struct.envelope* %499, i32 0, i32 4, !dbg !8248 ; [#uses=1 type=%struct.ap_uint.3*] [debug line = 258:8]
  %501 = bitcast %struct.ap_uint.3* %500 to %struct.ap_int_base.4*, !dbg !8248 ; [#uses=1 type=%struct.ap_int_base.4*] [debug line = 258:8]
  %502 = getelementptr inbounds %struct.envelope* %temp_diff_src_or_type3, i32 0, i32 4, !dbg !8248 ; [#uses=1 type=%struct.ap_uint.3*] [debug line = 258:8]
  %503 = bitcast %struct.ap_uint.3* %502 to %struct.ap_int_base.4*, !dbg !8248 ; [#uses=1 type=%struct.ap_int_base.4*] [debug line = 258:8]
  %504 = call zeroext i1 @_ZNK11ap_int_baseILi4ELb0ELb1EEeqILi4ELb0EEEbRKS_IXT_EXT0_EXleT_Li64EEE(%struct.ap_int_base.4* %501, %struct.ap_int_base.4* %503), !dbg !8248 ; [#uses=1 type=i1] [debug line = 258:8]
  br i1 %504, label %505, label %506, !dbg !8248  ; [debug line = 258:8]

; <label>:505                                     ; preds = %496
  store i32 0, i32* %1, !dbg !8249                ; [debug line = 259:9]
  br label %1399, !dbg !8249                      ; [debug line = 259:9]

; <label>:506                                     ; preds = %496, %487, %478, %469, %460, %451
  br label %507, !dbg !8250                       ; [debug line = 260:7]

; <label>:507                                     ; preds = %506
  %508 = load i32* %i5, align 4, !dbg !8251       ; [#uses=1 type=i32] [debug line = 252:42]
  %509 = add nsw i32 %508, 1, !dbg !8251          ; [#uses=1 type=i32] [debug line = 252:42]
  store i32 %509, i32* %i5, align 4, !dbg !8251   ; [debug line = 252:42]
  br label %447, !dbg !8251                       ; [debug line = 252:42]

; <label>:510                                     ; preds = %447
  %511 = load i32* @_ZL13float_clr_num, align 4, !dbg !8252 ; [#uses=1 type=i32] [debug line = 261:7]
  %512 = sext i32 %511 to i64, !dbg !8252         ; [#uses=1 type=i64] [debug line = 261:7]
  %513 = getelementptr inbounds [512 x %struct.envelope]* @_ZL19float_clr2snd_array, i32 0, i64 %512, !dbg !8252 ; [#uses=1 type=%struct.envelope*] [debug line = 261:7]
  %514 = call %struct.envelope* @_ZN8envelopeaSERKS_(%struct.envelope* %513, %struct.envelope* %temp_diff_src_or_type3), !dbg !8252 ; [#uses=0 type=%struct.envelope*] [debug line = 261:7]
  %515 = load i32* @_ZL13float_clr_num, align 4, !dbg !8253 ; [#uses=1 type=i32] [debug line = 262:7]
  %516 = add nsw i32 %515, 1, !dbg !8253          ; [#uses=1 type=i32] [debug line = 262:7]
  store i32 %516, i32* @_ZL13float_clr_num, align 4, !dbg !8253 ; [debug line = 262:7]
  br label %517, !dbg !8254                       ; [debug line = 263:6]

; <label>:517                                     ; preds = %510, %442
  br label %518

; <label>:518                                     ; preds = %517, %435
  store i32 0, i32* %1, !dbg !8255                ; [debug line = 264:6]
  br label %1399, !dbg !8255                      ; [debug line = 264:6]

; <label>:519                                     ; preds = %363
  br label %520

; <label>:520                                     ; preds = %519
  br label %521, !dbg !8256                       ; [debug line = 266:4]

; <label>:521                                     ; preds = %520, %203
  br label %527, !dbg !8257                       ; [debug line = 267:3]

; <label>:522                                     ; preds = %175
  call void @_ZN11ap_int_baseILi64ELb0ELb1EEppEi(%struct.ap_int_base.10* sret %27, %struct.ap_int_base.10* getelementptr inbounds (%struct.ap_uint.9* @_ZZ8MPI_SendPii13MPI_DATA_TYPEiiiE4time, i32 0, i32 0), i32 0), !dbg !8258 ; [debug line = 269:4]
  %523 = call zeroext i1 @_ZeqILi64ELb0EEbRK11ap_int_baseIXT_EXT0_EXleT_Li64EEEi(%struct.ap_int_base.10* getelementptr inbounds (%struct.ap_uint.9* @_ZZ8MPI_SendPii13MPI_DATA_TYPEiiiE4time, i32 0, i32 0), i32 314465410), !dbg !8260 ; [#uses=1 type=i1] [debug line = 270:7]
  br i1 %523, label %524, label %526, !dbg !8260  ; [debug line = 270:7]

; <label>:524                                     ; preds = %522
  store i2 0, i2* @_ZZ8MPI_SendPii13MPI_DATA_TYPEiiiE5state, align 1, !dbg !8261 ; [debug line = 271:5]
  call void @_ZN7ap_uintILi64EEC1Ei(%struct.ap_uint.9* %28, i32 0), !dbg !8263 ; [debug line = 272:5]
  %525 = call %struct.ap_uint.9* @_ZN7ap_uintILi64EEaSERKS0_(%struct.ap_uint.9* @_ZZ8MPI_SendPii13MPI_DATA_TYPEiiiE4time, %struct.ap_uint.9* %28), !dbg !8263 ; [#uses=0 type=%struct.ap_uint.9*] [debug line = 272:5]
  store i32 0, i32* %1, !dbg !8264                ; [debug line = 273:5]
  br label %1399, !dbg !8264                      ; [debug line = 273:5]

; <label>:526                                     ; preds = %522
  br label %527

; <label>:527                                     ; preds = %526, %521
  br label %1398, !dbg !8265                      ; [debug line = 277:2]

; <label>:528                                     ; preds = %66
  call void @llvm.dbg.declare(metadata !{i32* %seq_num}, metadata !8266), !dbg !8268 ; [debug line = 279:7] [debug variable = seq_num]
  store i32 0, i32* %seq_num, align 4, !dbg !8269 ; [debug line = 279:18]
  call void @llvm.dbg.declare(metadata !{i32* %old_seq_num}, metadata !8270), !dbg !8271 ; [debug line = 280:7] [debug variable = old_seq_num]
  store i32 0, i32* %old_seq_num, align 4, !dbg !8272 ; [debug line = 280:22]
  call void @llvm.dbg.declare(metadata !{i32* %i6}, metadata !8273), !dbg !8274 ; [debug line = 281:7] [debug variable = i]
  store i32 0, i32* %i6, align 4, !dbg !8275      ; [debug line = 281:12]
  call void @llvm.dbg.declare(metadata !{i1* %seq_inc}, metadata !8276), !dbg !8277 ; [debug line = 282:8] [debug variable = seq_inc]
  store i1 false, i1* %seq_inc, align 1, !dbg !8278 ; [debug line = 282:19]
  call void @llvm.dbg.declare(metadata !{i1* %transmission_done}, metadata !8279), !dbg !8280 ; [debug line = 283:8] [debug variable = transmission_done]
  store i1 false, i1* %transmission_done, align 1, !dbg !8281 ; [debug line = 283:29]
  call void @llvm.dbg.declare(metadata !{i1* %test}, metadata !8282), !dbg !8283 ; [debug line = 284:8] [debug variable = test]
  store i1 false, i1* %test, align 1, !dbg !8284  ; [debug line = 284:16]
  call void @llvm.dbg.declare(metadata !{i1* %error_is_seen}, metadata !8285), !dbg !8286 ; [debug line = 285:8] [debug variable = error_is_seen]
  store i1 false, i1* %error_is_seen, align 1, !dbg !8287 ; [debug line = 285:25]
  br label %529, !dbg !8287                       ; [debug line = 285:25]

; <label>:529                                     ; preds = %1046, %528
  br label %530, !dbg !8288                       ; [debug line = 287:7]

; <label>:530                                     ; preds = %1015, %529
  %531 = load i32* %i6, align 4, !dbg !8288       ; [#uses=1 type=i32] [debug line = 287:7]
  %532 = load i32* %3, align 4, !dbg !8288        ; [#uses=1 type=i32] [debug line = 287:7]
  %533 = load i3* %4, align 1, !dbg !8288         ; [#uses=1 type=i3] [debug line = 287:7]
  %534 = zext i3 %533 to i32, !dbg !8288          ; [#uses=1 type=i32] [debug line = 287:7]
  %535 = mul nsw i32 %532, %534, !dbg !8288       ; [#uses=1 type=i32] [debug line = 287:7]
  %536 = icmp slt i32 %531, %535, !dbg !8288      ; [#uses=1 type=i1] [debug line = 287:7]
  br i1 %536, label %537, label %1018, !dbg !8288 ; [debug line = 287:7]

; <label>:537                                     ; preds = %530
  call void (...)* @_ssdm_op_SpecLoopName(i8* getelementptr inbounds ([5 x i8]* @.str, i32 0, i32 0)) nounwind, !dbg !8290 ; [debug line = 287:40]
  call void (...)* @_ssdm_RegionBegin(i8* getelementptr inbounds ([5 x i8]* @.str, i32 0, i32 0)) nounwind, !dbg !8290 ; [debug line = 287:40]
  call void @llvm.dbg.declare(metadata !{%struct.stream_packet* %to_send_data}, metadata !8292), !dbg !8293 ; [debug line = 288:18] [debug variable = to_send_data]
  call void @_ZN13stream_packetC1Ev(%struct.stream_packet* %to_send_data), !dbg !8294 ; [debug line = 288:30]
  call void @llvm.dbg.declare(metadata !{%struct.stream_packet* %recv_data}, metadata !8295), !dbg !8296 ; [debug line = 289:18] [debug variable = recv_data]
  call void @_ZN13stream_packetC1Ev(%struct.stream_packet* %recv_data), !dbg !8297 ; [debug line = 289:35]
  call void @llvm.dbg.declare(metadata !{%struct.stream_packet* %useless7}, metadata !8298), !dbg !8299 ; [debug line = 289:28] [debug variable = useless]
  call void @_ZN13stream_packetC1Ev(%struct.stream_packet* %useless7), !dbg !8297 ; [debug line = 289:35]
  call void @llvm.dbg.declare(metadata !{%struct.ap_uint.12* %last8}, metadata !8300), !dbg !8301 ; [debug line = 290:15] [debug variable = last]
  call void @_ZN7ap_uintILi1EEC1Ev(%struct.ap_uint.12* %last8), !dbg !8302 ; [debug line = 290:19]
  %538 = call zeroext i1 @_ZNK3hls6streamI13stream_packetE5emptyEv(%"class.hls::stream"* @stream_in), !dbg !8303 ; [#uses=1 type=i1] [debug line = 292:8]
  br i1 %538, label %911, label %539, !dbg !8303  ; [debug line = 292:8]

; <label>:539                                     ; preds = %537
  call void @_ZN3hls6streamI13stream_packetE4readEv(%struct.stream_packet* sret %29, %"class.hls::stream"* @stream_in), !dbg !8304 ; [debug line = 294:17]
  %540 = call %struct.stream_packet* @_ZN13stream_packetaSERKS_(%struct.stream_packet* %recv_data, %struct.stream_packet* %29), !dbg !8304 ; [#uses=0 type=%struct.stream_packet*] [debug line = 294:17]
  %541 = getelementptr inbounds %struct.stream_packet* %recv_data, i32 0, i32 2, !dbg !8306 ; [#uses=1 type=%struct.ap_uint.12*] [debug line = 295:5]
  %542 = call %struct.ap_uint.12* @_ZN7ap_uintILi1EEaSERKS0_(%struct.ap_uint.12* %last8, %struct.ap_uint.12* %541), !dbg !8306 ; [#uses=0 type=%struct.ap_uint.12*] [debug line = 295:5]
  br label %543, !dbg !8307                       ; [debug line = 296:5]

; <label>:543                                     ; preds = %546, %539
  %544 = bitcast %struct.ap_uint.12* %last8 to %struct.ap_int_base.13*, !dbg !8308 ; [#uses=1 type=%struct.ap_int_base.13*] [debug line = 296:11]
  %545 = call zeroext i1 @_ZNK11ap_int_baseILi1ELb0ELb1EEntEv(%struct.ap_int_base.13* %544), !dbg !8308 ; [#uses=1 type=i1] [debug line = 296:11]
  br i1 %545, label %546, label %550, !dbg !8308  ; [debug line = 296:11]

; <label>:546                                     ; preds = %543
  call void @_ZN3hls6streamI13stream_packetE4readEv(%struct.stream_packet* sret %30, %"class.hls::stream"* @stream_in), !dbg !8309 ; [debug line = 297:16]
  %547 = call %struct.stream_packet* @_ZN13stream_packetaSERKS_(%struct.stream_packet* %useless7, %struct.stream_packet* %30), !dbg !8309 ; [#uses=0 type=%struct.stream_packet*] [debug line = 297:16]
  %548 = getelementptr inbounds %struct.stream_packet* %useless7, i32 0, i32 2, !dbg !8311 ; [#uses=1 type=%struct.ap_uint.12*] [debug line = 298:6]
  %549 = call %struct.ap_uint.12* @_ZN7ap_uintILi1EEaSERKS0_(%struct.ap_uint.12* %last8, %struct.ap_uint.12* %548), !dbg !8311 ; [#uses=0 type=%struct.ap_uint.12*] [debug line = 298:6]
  br label %543, !dbg !8312                       ; [debug line = 299:5]

; <label>:550                                     ; preds = %543
  call void @llvm.dbg.declare(metadata !{%struct.envelope* %temp9}, metadata !8313), !dbg !8314 ; [debug line = 301:14] [debug variable = temp]
  call void @_ZN8envelopeC1Ev(%struct.envelope* %temp9), !dbg !8315 ; [debug line = 301:18]
  call void @_Z18packet_to_envelopeP13stream_packetP8envelope(%struct.stream_packet* %recv_data, %struct.envelope* %temp9), !dbg !8316 ; [debug line = 302:5]
  %551 = getelementptr inbounds %struct.envelope* %temp9, i32 0, i32 1, !dbg !8317 ; [#uses=1 type=%struct.ap_uint*] [debug line = 304:8]
  %552 = bitcast %struct.ap_uint* %551 to %struct.ap_int_base*, !dbg !8317 ; [#uses=1 type=%struct.ap_int_base*] [debug line = 304:8]
  %553 = call zeroext i1 @_ZeqILi8ELb0EEbRK11ap_int_baseIXT_EXT0_EXleT_Li64EEEi(%struct.ap_int_base* %552, i32 4), !dbg !8317 ; [#uses=1 type=i1] [debug line = 304:8]
  br i1 %553, label %554, label %568, !dbg !8317  ; [debug line = 304:8]

; <label>:554                                     ; preds = %550
  %555 = getelementptr inbounds %struct.stream_packet* %recv_data, i32 0, i32 3, !dbg !8318 ; [#uses=1 type=%struct.ap_uint*] [debug line = 304:30]
  %556 = bitcast %struct.ap_uint* %555 to %struct.ap_int_base*, !dbg !8318 ; [#uses=1 type=%struct.ap_int_base*] [debug line = 304:30]
  %557 = load i32* %5, align 4, !dbg !8318        ; [#uses=1 type=i32] [debug line = 304:30]
  %558 = call zeroext i1 @_ZeqILi8ELb0EEbRK11ap_int_baseIXT_EXT0_EXleT_Li64EEEi(%struct.ap_int_base* %556, i32 %557), !dbg !8318 ; [#uses=1 type=i1] [debug line = 304:30]
  br i1 %558, label %559, label %568, !dbg !8318  ; [debug line = 304:30]

; <label>:559                                     ; preds = %554
  %560 = getelementptr inbounds %struct.envelope* %temp9, i32 0, i32 2, !dbg !8319 ; [#uses=1 type=%struct.ap_uint.0*] [debug line = 305:10]
  %561 = bitcast %struct.ap_uint.0* %560 to %struct.ap_int_base.1*, !dbg !8319 ; [#uses=1 type=%struct.ap_int_base.1*] [debug line = 305:10]
  call void @_ZmlILi32ELb0EEN11ap_int_baseIXT_EXT0_EXleT_Li64EEE5RTypeIXLi32EEXLb1EEE4multERKS1_i(%struct.ap_int_base.10* sret %31, %struct.ap_int_base.1* %561, i32 1488), !dbg !8319 ; [debug line = 305:10]
  %562 = call i64 @_ZNK11ap_int_baseILi64ELb1ELb1EEcvxEv(%struct.ap_int_base.10* %31), !dbg !8319 ; [#uses=1 type=i64] [debug line = 305:10]
  %563 = trunc i64 %562 to i32, !dbg !8319        ; [#uses=1 type=i32] [debug line = 305:10]
  store i32 %563, i32* %i6, align 4, !dbg !8319   ; [debug line = 305:10]
  %564 = getelementptr inbounds %struct.envelope* %temp9, i32 0, i32 2, !dbg !8321 ; [#uses=1 type=%struct.ap_uint.0*] [debug line = 306:16]
  %565 = bitcast %struct.ap_uint.0* %564 to %struct.ap_int_base.1*, !dbg !8321 ; [#uses=1 type=%struct.ap_int_base.1*] [debug line = 306:16]
  %566 = call i32 @_ZNK11ap_int_baseILi32ELb0ELb1EEcvjEv(%struct.ap_int_base.1* %565), !dbg !8321 ; [#uses=1 type=i32] [debug line = 306:16]
  store i32 %566, i32* %seq_num, align 4, !dbg !8321 ; [debug line = 306:16]
  store i1 true, i1* %error_is_seen, align 1, !dbg !8322 ; [debug line = 307:6]
  %567 = load i32* %seq_num, align 4, !dbg !8323  ; [#uses=1 type=i32] [debug line = 308:6]
  store i32 %567, i32* %old_seq_num, align 4, !dbg !8323 ; [debug line = 308:6]
  br label %1015, !dbg !8324                      ; [debug line = 310:6]

; <label>:568                                     ; preds = %554, %550
  %569 = getelementptr inbounds %struct.envelope* %temp9, i32 0, i32 1, !dbg !8325 ; [#uses=1 type=%struct.ap_uint*] [debug line = 312:13]
  %570 = bitcast %struct.ap_uint* %569 to %struct.ap_int_base*, !dbg !8325 ; [#uses=1 type=%struct.ap_int_base*] [debug line = 312:13]
  %571 = call zeroext i1 @_ZeqILi8ELb0EEbRK11ap_int_baseIXT_EXT0_EXleT_Li64EEEi(%struct.ap_int_base* %570, i32 5), !dbg !8325 ; [#uses=1 type=i1] [debug line = 312:13]
  br i1 %571, label %572, label %578, !dbg !8325  ; [debug line = 312:13]

; <label>:572                                     ; preds = %568
  %573 = getelementptr inbounds %struct.stream_packet* %recv_data, i32 0, i32 3, !dbg !8326 ; [#uses=1 type=%struct.ap_uint*] [debug line = 312:35]
  %574 = bitcast %struct.ap_uint* %573 to %struct.ap_int_base*, !dbg !8326 ; [#uses=1 type=%struct.ap_int_base*] [debug line = 312:35]
  %575 = load i32* %5, align 4, !dbg !8326        ; [#uses=1 type=i32] [debug line = 312:35]
  %576 = call zeroext i1 @_ZeqILi8ELb0EEbRK11ap_int_baseIXT_EXT0_EXleT_Li64EEEi(%struct.ap_int_base* %574, i32 %575), !dbg !8326 ; [#uses=1 type=i1] [debug line = 312:35]
  br i1 %576, label %577, label %578, !dbg !8326  ; [debug line = 312:35]

; <label>:577                                     ; preds = %572
  store i1 true, i1* %transmission_done, align 1, !dbg !8327 ; [debug line = 313:6]
  br label %909, !dbg !8329                       ; [debug line = 314:5]

; <label>:578                                     ; preds = %572, %568
  %579 = getelementptr inbounds %struct.stream_packet* %recv_data, i32 0, i32 4, !dbg !8330 ; [#uses=1 type=%struct.ap_uint.15*] [debug line = 315:13]
  %580 = bitcast %struct.ap_uint.15* %579 to %struct.ap_int_base.16*, !dbg !8330 ; [#uses=1 type=%struct.ap_int_base.16*] [debug line = 315:13]
  call void @_ZN11ap_int_baseILi40ELb0ELb1EEclEii(%struct.ap_range_ref.18* sret %32, %struct.ap_int_base.16* %580, i32 7, i32 4), !dbg !8330 ; [debug line = 315:13]
  %581 = call zeroext i1 @_ZeqILi40ELb0EEbRK12ap_range_refIXT_EXT0_EEi(%struct.ap_range_ref.18* %32, i32 0), !dbg !8330 ; [#uses=1 type=i1] [debug line = 315:13]
  br i1 %581, label %582, label %908, !dbg !8330  ; [debug line = 315:13]

; <label>:582                                     ; preds = %578
  %583 = getelementptr inbounds %struct.stream_packet* %recv_data, i32 0, i32 4, !dbg !8331 ; [#uses=1 type=%struct.ap_uint.15*] [debug line = 316:9]
  %584 = bitcast %struct.ap_uint.15* %583 to %struct.ap_int_base.16*, !dbg !8331 ; [#uses=1 type=%struct.ap_int_base.16*] [debug line = 316:9]
  call void @_ZN11ap_int_baseILi40ELb0ELb1EEclEii(%struct.ap_range_ref.18* sret %33, %struct.ap_int_base.16* %584, i32 3, i32 0), !dbg !8331 ; [debug line = 316:9]
  %585 = call zeroext i1 @_ZeqILi40ELb0EEbRK12ap_range_refIXT_EXT0_EEi(%struct.ap_range_ref.18* %33, i32 0), !dbg !8331 ; [#uses=1 type=i1] [debug line = 316:9]
  br i1 %585, label %586, label %744, !dbg !8331  ; [debug line = 316:9]

; <label>:586                                     ; preds = %582
  call void @llvm.dbg.declare(metadata !{%struct.envelope* %temp_diff_src_or_type10}, metadata !8333), !dbg !8335 ; [debug line = 317:16] [debug variable = temp_diff_src_or_type]
  call void @_ZN8envelopeC1Ev(%struct.envelope* %temp_diff_src_or_type10), !dbg !8336 ; [debug line = 317:37]
  call void @_Z18packet_to_envelopeP13stream_packetP8envelope(%struct.stream_packet* %recv_data, %struct.envelope* %temp_diff_src_or_type10), !dbg !8337 ; [debug line = 318:7]
  %587 = getelementptr inbounds %struct.envelope* %temp_diff_src_or_type10, i32 0, i32 1, !dbg !8338 ; [#uses=1 type=%struct.ap_uint*] [debug line = 319:10]
  %588 = bitcast %struct.ap_uint* %587 to %struct.ap_int_base*, !dbg !8338 ; [#uses=1 type=%struct.ap_int_base*] [debug line = 319:10]
  %589 = call zeroext i1 @_ZeqILi8ELb0EEbRK11ap_int_baseIXT_EXT0_EXleT_Li64EEEi(%struct.ap_int_base* %588, i32 0), !dbg !8338 ; [#uses=1 type=i1] [debug line = 319:10]
  br i1 %589, label %590, label %664, !dbg !8338  ; [debug line = 319:10]

; <label>:590                                     ; preds = %586
  call void @llvm.dbg.declare(metadata !{i1* %is_duplicated}, metadata !8339), !dbg !8341 ; [debug line = 321:13] [debug variable = is_duplicated]
  store i1 false, i1* %is_duplicated, align 1, !dbg !8342 ; [debug line = 321:30]
  call void @llvm.dbg.declare(metadata !{i32* %i11}, metadata !8343), !dbg !8345 ; [debug line = 322:16] [debug variable = i]
  store i32 0, i32* %i11, align 4, !dbg !8346     ; [debug line = 322:22]
  br label %591, !dbg !8346                       ; [debug line = 322:22]

; <label>:591                                     ; preds = %651, %590
  %592 = load i32* %i11, align 4, !dbg !8346      ; [#uses=1 type=i32] [debug line = 322:22]
  %593 = load i32* @_ZL11int_req_num, align 4, !dbg !8346 ; [#uses=1 type=i32] [debug line = 322:22]
  %594 = icmp slt i32 %592, %593, !dbg !8346      ; [#uses=1 type=i1] [debug line = 322:22]
  br i1 %594, label %595, label %654, !dbg !8346  ; [debug line = 322:22]

; <label>:595                                     ; preds = %591
  %596 = load i32* %i11, align 4, !dbg !8347      ; [#uses=1 type=i32] [debug line = 323:12]
  %597 = sext i32 %596 to i64, !dbg !8347         ; [#uses=1 type=i64] [debug line = 323:12]
  %598 = getelementptr inbounds [512 x %struct.envelope]* @_ZL17int_request_array, i32 0, i64 %597, !dbg !8347 ; [#uses=1 type=%struct.envelope*] [debug line = 323:12]
  %599 = getelementptr inbounds %struct.envelope* %598, i32 0, i32 0, !dbg !8347 ; [#uses=1 type=%struct.ap_uint*] [debug line = 323:12]
  %600 = bitcast %struct.ap_uint* %599 to %struct.ap_int_base*, !dbg !8347 ; [#uses=1 type=%struct.ap_int_base*] [debug line = 323:12]
  %601 = getelementptr inbounds %struct.envelope* %temp_diff_src_or_type10, i32 0, i32 0, !dbg !8347 ; [#uses=1 type=%struct.ap_uint*] [debug line = 323:12]
  %602 = bitcast %struct.ap_uint* %601 to %struct.ap_int_base*, !dbg !8347 ; [#uses=1 type=%struct.ap_int_base*] [debug line = 323:12]
  %603 = call zeroext i1 @_ZNK11ap_int_baseILi8ELb0ELb1EEeqILi8ELb0EEEbRKS_IXT_EXT0_EXleT_Li64EEE(%struct.ap_int_base* %600, %struct.ap_int_base* %602), !dbg !8347 ; [#uses=1 type=i1] [debug line = 323:12]
  br i1 %603, label %604, label %650, !dbg !8347  ; [debug line = 323:12]

; <label>:604                                     ; preds = %595
  %605 = load i32* %i11, align 4, !dbg !8349      ; [#uses=1 type=i32] [debug line = 324:9]
  %606 = sext i32 %605 to i64, !dbg !8349         ; [#uses=1 type=i64] [debug line = 324:9]
  %607 = getelementptr inbounds [512 x %struct.envelope]* @_ZL17int_request_array, i32 0, i64 %606, !dbg !8349 ; [#uses=1 type=%struct.envelope*] [debug line = 324:9]
  %608 = getelementptr inbounds %struct.envelope* %607, i32 0, i32 6, !dbg !8349 ; [#uses=1 type=%struct.ap_uint.6*] [debug line = 324:9]
  %609 = bitcast %struct.ap_uint.6* %608 to %struct.ap_int_base.7*, !dbg !8349 ; [#uses=1 type=%struct.ap_int_base.7*] [debug line = 324:9]
  %610 = getelementptr inbounds %struct.envelope* %temp_diff_src_or_type10, i32 0, i32 6, !dbg !8349 ; [#uses=1 type=%struct.ap_uint.6*] [debug line = 324:9]
  %611 = bitcast %struct.ap_uint.6* %610 to %struct.ap_int_base.7*, !dbg !8349 ; [#uses=1 type=%struct.ap_int_base.7*] [debug line = 324:9]
  %612 = call zeroext i1 @_ZNK11ap_int_baseILi16ELb0ELb1EEeqILi16ELb0EEEbRKS_IXT_EXT0_EXleT_Li64EEE(%struct.ap_int_base.7* %609, %struct.ap_int_base.7* %611), !dbg !8349 ; [#uses=1 type=i1] [debug line = 324:9]
  br i1 %612, label %613, label %650, !dbg !8349  ; [debug line = 324:9]

; <label>:613                                     ; preds = %604
  %614 = load i32* %i11, align 4, !dbg !8350      ; [#uses=1 type=i32] [debug line = 325:9]
  %615 = sext i32 %614 to i64, !dbg !8350         ; [#uses=1 type=i64] [debug line = 325:9]
  %616 = getelementptr inbounds [512 x %struct.envelope]* @_ZL17int_request_array, i32 0, i64 %615, !dbg !8350 ; [#uses=1 type=%struct.envelope*] [debug line = 325:9]
  %617 = getelementptr inbounds %struct.envelope* %616, i32 0, i32 1, !dbg !8350 ; [#uses=1 type=%struct.ap_uint*] [debug line = 325:9]
  %618 = bitcast %struct.ap_uint* %617 to %struct.ap_int_base*, !dbg !8350 ; [#uses=1 type=%struct.ap_int_base*] [debug line = 325:9]
  %619 = getelementptr inbounds %struct.envelope* %temp_diff_src_or_type10, i32 0, i32 1, !dbg !8350 ; [#uses=1 type=%struct.ap_uint*] [debug line = 325:9]
  %620 = bitcast %struct.ap_uint* %619 to %struct.ap_int_base*, !dbg !8350 ; [#uses=1 type=%struct.ap_int_base*] [debug line = 325:9]
  %621 = call zeroext i1 @_ZNK11ap_int_baseILi8ELb0ELb1EEeqILi8ELb0EEEbRKS_IXT_EXT0_EXleT_Li64EEE(%struct.ap_int_base* %618, %struct.ap_int_base* %620), !dbg !8350 ; [#uses=1 type=i1] [debug line = 325:9]
  br i1 %621, label %622, label %650, !dbg !8350  ; [debug line = 325:9]

; <label>:622                                     ; preds = %613
  %623 = load i32* %i11, align 4, !dbg !8351      ; [#uses=1 type=i32] [debug line = 326:9]
  %624 = sext i32 %623 to i64, !dbg !8351         ; [#uses=1 type=i64] [debug line = 326:9]
  %625 = getelementptr inbounds [512 x %struct.envelope]* @_ZL17int_request_array, i32 0, i64 %624, !dbg !8351 ; [#uses=1 type=%struct.envelope*] [debug line = 326:9]
  %626 = getelementptr inbounds %struct.envelope* %625, i32 0, i32 2, !dbg !8351 ; [#uses=1 type=%struct.ap_uint.0*] [debug line = 326:9]
  %627 = bitcast %struct.ap_uint.0* %626 to %struct.ap_int_base.1*, !dbg !8351 ; [#uses=1 type=%struct.ap_int_base.1*] [debug line = 326:9]
  %628 = getelementptr inbounds %struct.envelope* %temp_diff_src_or_type10, i32 0, i32 2, !dbg !8351 ; [#uses=1 type=%struct.ap_uint.0*] [debug line = 326:9]
  %629 = bitcast %struct.ap_uint.0* %628 to %struct.ap_int_base.1*, !dbg !8351 ; [#uses=1 type=%struct.ap_int_base.1*] [debug line = 326:9]
  %630 = call zeroext i1 @_ZNK11ap_int_baseILi32ELb0ELb1EEeqILi32ELb0EEEbRKS_IXT_EXT0_EXleT_Li64EEE(%struct.ap_int_base.1* %627, %struct.ap_int_base.1* %629), !dbg !8351 ; [#uses=1 type=i1] [debug line = 326:9]
  br i1 %630, label %631, label %650, !dbg !8351  ; [debug line = 326:9]

; <label>:631                                     ; preds = %622
  %632 = load i32* %i11, align 4, !dbg !8352      ; [#uses=1 type=i32] [debug line = 327:9]
  %633 = sext i32 %632 to i64, !dbg !8352         ; [#uses=1 type=i64] [debug line = 327:9]
  %634 = getelementptr inbounds [512 x %struct.envelope]* @_ZL17int_request_array, i32 0, i64 %633, !dbg !8352 ; [#uses=1 type=%struct.envelope*] [debug line = 327:9]
  %635 = getelementptr inbounds %struct.envelope* %634, i32 0, i32 3, !dbg !8352 ; [#uses=1 type=%struct.ap_uint*] [debug line = 327:9]
  %636 = bitcast %struct.ap_uint* %635 to %struct.ap_int_base*, !dbg !8352 ; [#uses=1 type=%struct.ap_int_base*] [debug line = 327:9]
  %637 = getelementptr inbounds %struct.envelope* %temp_diff_src_or_type10, i32 0, i32 3, !dbg !8352 ; [#uses=1 type=%struct.ap_uint*] [debug line = 327:9]
  %638 = bitcast %struct.ap_uint* %637 to %struct.ap_int_base*, !dbg !8352 ; [#uses=1 type=%struct.ap_int_base*] [debug line = 327:9]
  %639 = call zeroext i1 @_ZNK11ap_int_baseILi8ELb0ELb1EEeqILi8ELb0EEEbRKS_IXT_EXT0_EXleT_Li64EEE(%struct.ap_int_base* %636, %struct.ap_int_base* %638), !dbg !8352 ; [#uses=1 type=i1] [debug line = 327:9]
  br i1 %639, label %640, label %650, !dbg !8352  ; [debug line = 327:9]

; <label>:640                                     ; preds = %631
  %641 = load i32* %i11, align 4, !dbg !8353      ; [#uses=1 type=i32] [debug line = 328:9]
  %642 = sext i32 %641 to i64, !dbg !8353         ; [#uses=1 type=i64] [debug line = 328:9]
  %643 = getelementptr inbounds [512 x %struct.envelope]* @_ZL17int_request_array, i32 0, i64 %642, !dbg !8353 ; [#uses=1 type=%struct.envelope*] [debug line = 328:9]
  %644 = getelementptr inbounds %struct.envelope* %643, i32 0, i32 4, !dbg !8353 ; [#uses=1 type=%struct.ap_uint.3*] [debug line = 328:9]
  %645 = bitcast %struct.ap_uint.3* %644 to %struct.ap_int_base.4*, !dbg !8353 ; [#uses=1 type=%struct.ap_int_base.4*] [debug line = 328:9]
  %646 = getelementptr inbounds %struct.envelope* %temp_diff_src_or_type10, i32 0, i32 4, !dbg !8353 ; [#uses=1 type=%struct.ap_uint.3*] [debug line = 328:9]
  %647 = bitcast %struct.ap_uint.3* %646 to %struct.ap_int_base.4*, !dbg !8353 ; [#uses=1 type=%struct.ap_int_base.4*] [debug line = 328:9]
  %648 = call zeroext i1 @_ZNK11ap_int_baseILi4ELb0ELb1EEeqILi4ELb0EEEbRKS_IXT_EXT0_EXleT_Li64EEE(%struct.ap_int_base.4* %645, %struct.ap_int_base.4* %647), !dbg !8353 ; [#uses=1 type=i1] [debug line = 328:9]
  br i1 %648, label %649, label %650, !dbg !8353  ; [debug line = 328:9]

; <label>:649                                     ; preds = %640
  store i1 true, i1* %is_duplicated, align 1, !dbg !8354 ; [debug line = 329:10]
  br label %654, !dbg !8356                       ; [debug line = 330:10]

; <label>:650                                     ; preds = %640, %631, %622, %613, %604, %595
  br label %651, !dbg !8357                       ; [debug line = 332:8]

; <label>:651                                     ; preds = %650
  %652 = load i32* %i11, align 4, !dbg !8358      ; [#uses=1 type=i32] [debug line = 322:41]
  %653 = add nsw i32 %652, 1, !dbg !8358          ; [#uses=1 type=i32] [debug line = 322:41]
  store i32 %653, i32* %i11, align 4, !dbg !8358  ; [debug line = 322:41]
  br label %591, !dbg !8358                       ; [debug line = 322:41]

; <label>:654                                     ; preds = %649, %591
  %655 = load i1* %is_duplicated, align 1, !dbg !8359 ; [#uses=1 type=i1] [debug line = 333:8]
  br i1 %655, label %663, label %656, !dbg !8359  ; [debug line = 333:8]

; <label>:656                                     ; preds = %654
  %657 = load i32* @_ZL11int_req_num, align 4, !dbg !8360 ; [#uses=1 type=i32] [debug line = 334:9]
  %658 = sext i32 %657 to i64, !dbg !8360         ; [#uses=1 type=i64] [debug line = 334:9]
  %659 = getelementptr inbounds [512 x %struct.envelope]* @_ZL17int_request_array, i32 0, i64 %658, !dbg !8360 ; [#uses=1 type=%struct.envelope*] [debug line = 334:9]
  %660 = call %struct.envelope* @_ZN8envelopeaSERKS_(%struct.envelope* %659, %struct.envelope* %temp_diff_src_or_type10), !dbg !8360 ; [#uses=0 type=%struct.envelope*] [debug line = 334:9]
  %661 = load i32* @_ZL11int_req_num, align 4, !dbg !8362 ; [#uses=1 type=i32] [debug line = 335:9]
  %662 = add nsw i32 %661, 1, !dbg !8362          ; [#uses=1 type=i32] [debug line = 335:9]
  store i32 %662, i32* @_ZL11int_req_num, align 4, !dbg !8362 ; [debug line = 335:9]
  br label %663, !dbg !8363                       ; [debug line = 336:8]

; <label>:663                                     ; preds = %656, %654
  br label %743, !dbg !8364                       ; [debug line = 337:7]

; <label>:664                                     ; preds = %586
  %665 = getelementptr inbounds %struct.envelope* %temp_diff_src_or_type10, i32 0, i32 1, !dbg !8365 ; [#uses=1 type=%struct.ap_uint*] [debug line = 338:15]
  %666 = bitcast %struct.ap_uint* %665 to %struct.ap_int_base*, !dbg !8365 ; [#uses=1 type=%struct.ap_int_base*] [debug line = 338:15]
  %667 = call zeroext i1 @_ZeqILi8ELb0EEbRK11ap_int_baseIXT_EXT0_EXleT_Li64EEEi(%struct.ap_int_base* %666, i32 1), !dbg !8365 ; [#uses=1 type=i1] [debug line = 338:15]
  br i1 %667, label %668, label %742, !dbg !8365  ; [debug line = 338:15]

; <label>:668                                     ; preds = %664
  call void @llvm.dbg.declare(metadata !{i1* %is_duplicated12}, metadata !8366), !dbg !8368 ; [debug line = 340:13] [debug variable = is_duplicated]
  store i1 false, i1* %is_duplicated12, align 1, !dbg !8369 ; [debug line = 340:30]
  call void @llvm.dbg.declare(metadata !{i32* %i13}, metadata !8370), !dbg !8372 ; [debug line = 341:16] [debug variable = i]
  store i32 0, i32* %i13, align 4, !dbg !8373     ; [debug line = 341:22]
  br label %669, !dbg !8373                       ; [debug line = 341:22]

; <label>:669                                     ; preds = %729, %668
  %670 = load i32* %i13, align 4, !dbg !8373      ; [#uses=1 type=i32] [debug line = 341:22]
  %671 = load i32* @_ZL11int_clr_num, align 4, !dbg !8373 ; [#uses=1 type=i32] [debug line = 341:22]
  %672 = icmp slt i32 %670, %671, !dbg !8373      ; [#uses=1 type=i1] [debug line = 341:22]
  br i1 %672, label %673, label %732, !dbg !8373  ; [debug line = 341:22]

; <label>:673                                     ; preds = %669
  %674 = load i32* %i13, align 4, !dbg !8374      ; [#uses=1 type=i32] [debug line = 342:12]
  %675 = sext i32 %674 to i64, !dbg !8374         ; [#uses=1 type=i64] [debug line = 342:12]
  %676 = getelementptr inbounds [512 x %struct.envelope]* @_ZL17int_clr2snd_array, i32 0, i64 %675, !dbg !8374 ; [#uses=1 type=%struct.envelope*] [debug line = 342:12]
  %677 = getelementptr inbounds %struct.envelope* %676, i32 0, i32 0, !dbg !8374 ; [#uses=1 type=%struct.ap_uint*] [debug line = 342:12]
  %678 = bitcast %struct.ap_uint* %677 to %struct.ap_int_base*, !dbg !8374 ; [#uses=1 type=%struct.ap_int_base*] [debug line = 342:12]
  %679 = getelementptr inbounds %struct.envelope* %temp_diff_src_or_type10, i32 0, i32 0, !dbg !8374 ; [#uses=1 type=%struct.ap_uint*] [debug line = 342:12]
  %680 = bitcast %struct.ap_uint* %679 to %struct.ap_int_base*, !dbg !8374 ; [#uses=1 type=%struct.ap_int_base*] [debug line = 342:12]
  %681 = call zeroext i1 @_ZNK11ap_int_baseILi8ELb0ELb1EEeqILi8ELb0EEEbRKS_IXT_EXT0_EXleT_Li64EEE(%struct.ap_int_base* %678, %struct.ap_int_base* %680), !dbg !8374 ; [#uses=1 type=i1] [debug line = 342:12]
  br i1 %681, label %682, label %728, !dbg !8374  ; [debug line = 342:12]

; <label>:682                                     ; preds = %673
  %683 = load i32* %i13, align 4, !dbg !8376      ; [#uses=1 type=i32] [debug line = 343:9]
  %684 = sext i32 %683 to i64, !dbg !8376         ; [#uses=1 type=i64] [debug line = 343:9]
  %685 = getelementptr inbounds [512 x %struct.envelope]* @_ZL17int_clr2snd_array, i32 0, i64 %684, !dbg !8376 ; [#uses=1 type=%struct.envelope*] [debug line = 343:9]
  %686 = getelementptr inbounds %struct.envelope* %685, i32 0, i32 6, !dbg !8376 ; [#uses=1 type=%struct.ap_uint.6*] [debug line = 343:9]
  %687 = bitcast %struct.ap_uint.6* %686 to %struct.ap_int_base.7*, !dbg !8376 ; [#uses=1 type=%struct.ap_int_base.7*] [debug line = 343:9]
  %688 = getelementptr inbounds %struct.envelope* %temp_diff_src_or_type10, i32 0, i32 6, !dbg !8376 ; [#uses=1 type=%struct.ap_uint.6*] [debug line = 343:9]
  %689 = bitcast %struct.ap_uint.6* %688 to %struct.ap_int_base.7*, !dbg !8376 ; [#uses=1 type=%struct.ap_int_base.7*] [debug line = 343:9]
  %690 = call zeroext i1 @_ZNK11ap_int_baseILi16ELb0ELb1EEeqILi16ELb0EEEbRKS_IXT_EXT0_EXleT_Li64EEE(%struct.ap_int_base.7* %687, %struct.ap_int_base.7* %689), !dbg !8376 ; [#uses=1 type=i1] [debug line = 343:9]
  br i1 %690, label %691, label %728, !dbg !8376  ; [debug line = 343:9]

; <label>:691                                     ; preds = %682
  %692 = load i32* %i13, align 4, !dbg !8377      ; [#uses=1 type=i32] [debug line = 344:9]
  %693 = sext i32 %692 to i64, !dbg !8377         ; [#uses=1 type=i64] [debug line = 344:9]
  %694 = getelementptr inbounds [512 x %struct.envelope]* @_ZL17int_clr2snd_array, i32 0, i64 %693, !dbg !8377 ; [#uses=1 type=%struct.envelope*] [debug line = 344:9]
  %695 = getelementptr inbounds %struct.envelope* %694, i32 0, i32 1, !dbg !8377 ; [#uses=1 type=%struct.ap_uint*] [debug line = 344:9]
  %696 = bitcast %struct.ap_uint* %695 to %struct.ap_int_base*, !dbg !8377 ; [#uses=1 type=%struct.ap_int_base*] [debug line = 344:9]
  %697 = getelementptr inbounds %struct.envelope* %temp_diff_src_or_type10, i32 0, i32 1, !dbg !8377 ; [#uses=1 type=%struct.ap_uint*] [debug line = 344:9]
  %698 = bitcast %struct.ap_uint* %697 to %struct.ap_int_base*, !dbg !8377 ; [#uses=1 type=%struct.ap_int_base*] [debug line = 344:9]
  %699 = call zeroext i1 @_ZNK11ap_int_baseILi8ELb0ELb1EEeqILi8ELb0EEEbRKS_IXT_EXT0_EXleT_Li64EEE(%struct.ap_int_base* %696, %struct.ap_int_base* %698), !dbg !8377 ; [#uses=1 type=i1] [debug line = 344:9]
  br i1 %699, label %700, label %728, !dbg !8377  ; [debug line = 344:9]

; <label>:700                                     ; preds = %691
  %701 = load i32* %i13, align 4, !dbg !8378      ; [#uses=1 type=i32] [debug line = 345:9]
  %702 = sext i32 %701 to i64, !dbg !8378         ; [#uses=1 type=i64] [debug line = 345:9]
  %703 = getelementptr inbounds [512 x %struct.envelope]* @_ZL17int_clr2snd_array, i32 0, i64 %702, !dbg !8378 ; [#uses=1 type=%struct.envelope*] [debug line = 345:9]
  %704 = getelementptr inbounds %struct.envelope* %703, i32 0, i32 2, !dbg !8378 ; [#uses=1 type=%struct.ap_uint.0*] [debug line = 345:9]
  %705 = bitcast %struct.ap_uint.0* %704 to %struct.ap_int_base.1*, !dbg !8378 ; [#uses=1 type=%struct.ap_int_base.1*] [debug line = 345:9]
  %706 = getelementptr inbounds %struct.envelope* %temp_diff_src_or_type10, i32 0, i32 2, !dbg !8378 ; [#uses=1 type=%struct.ap_uint.0*] [debug line = 345:9]
  %707 = bitcast %struct.ap_uint.0* %706 to %struct.ap_int_base.1*, !dbg !8378 ; [#uses=1 type=%struct.ap_int_base.1*] [debug line = 345:9]
  %708 = call zeroext i1 @_ZNK11ap_int_baseILi32ELb0ELb1EEeqILi32ELb0EEEbRKS_IXT_EXT0_EXleT_Li64EEE(%struct.ap_int_base.1* %705, %struct.ap_int_base.1* %707), !dbg !8378 ; [#uses=1 type=i1] [debug line = 345:9]
  br i1 %708, label %709, label %728, !dbg !8378  ; [debug line = 345:9]

; <label>:709                                     ; preds = %700
  %710 = load i32* %i13, align 4, !dbg !8379      ; [#uses=1 type=i32] [debug line = 346:9]
  %711 = sext i32 %710 to i64, !dbg !8379         ; [#uses=1 type=i64] [debug line = 346:9]
  %712 = getelementptr inbounds [512 x %struct.envelope]* @_ZL17int_clr2snd_array, i32 0, i64 %711, !dbg !8379 ; [#uses=1 type=%struct.envelope*] [debug line = 346:9]
  %713 = getelementptr inbounds %struct.envelope* %712, i32 0, i32 3, !dbg !8379 ; [#uses=1 type=%struct.ap_uint*] [debug line = 346:9]
  %714 = bitcast %struct.ap_uint* %713 to %struct.ap_int_base*, !dbg !8379 ; [#uses=1 type=%struct.ap_int_base*] [debug line = 346:9]
  %715 = getelementptr inbounds %struct.envelope* %temp_diff_src_or_type10, i32 0, i32 3, !dbg !8379 ; [#uses=1 type=%struct.ap_uint*] [debug line = 346:9]
  %716 = bitcast %struct.ap_uint* %715 to %struct.ap_int_base*, !dbg !8379 ; [#uses=1 type=%struct.ap_int_base*] [debug line = 346:9]
  %717 = call zeroext i1 @_ZNK11ap_int_baseILi8ELb0ELb1EEeqILi8ELb0EEEbRKS_IXT_EXT0_EXleT_Li64EEE(%struct.ap_int_base* %714, %struct.ap_int_base* %716), !dbg !8379 ; [#uses=1 type=i1] [debug line = 346:9]
  br i1 %717, label %718, label %728, !dbg !8379  ; [debug line = 346:9]

; <label>:718                                     ; preds = %709
  %719 = load i32* %i13, align 4, !dbg !8380      ; [#uses=1 type=i32] [debug line = 347:9]
  %720 = sext i32 %719 to i64, !dbg !8380         ; [#uses=1 type=i64] [debug line = 347:9]
  %721 = getelementptr inbounds [512 x %struct.envelope]* @_ZL17int_clr2snd_array, i32 0, i64 %720, !dbg !8380 ; [#uses=1 type=%struct.envelope*] [debug line = 347:9]
  %722 = getelementptr inbounds %struct.envelope* %721, i32 0, i32 4, !dbg !8380 ; [#uses=1 type=%struct.ap_uint.3*] [debug line = 347:9]
  %723 = bitcast %struct.ap_uint.3* %722 to %struct.ap_int_base.4*, !dbg !8380 ; [#uses=1 type=%struct.ap_int_base.4*] [debug line = 347:9]
  %724 = getelementptr inbounds %struct.envelope* %temp_diff_src_or_type10, i32 0, i32 4, !dbg !8380 ; [#uses=1 type=%struct.ap_uint.3*] [debug line = 347:9]
  %725 = bitcast %struct.ap_uint.3* %724 to %struct.ap_int_base.4*, !dbg !8380 ; [#uses=1 type=%struct.ap_int_base.4*] [debug line = 347:9]
  %726 = call zeroext i1 @_ZNK11ap_int_baseILi4ELb0ELb1EEeqILi4ELb0EEEbRKS_IXT_EXT0_EXleT_Li64EEE(%struct.ap_int_base.4* %723, %struct.ap_int_base.4* %725), !dbg !8380 ; [#uses=1 type=i1] [debug line = 347:9]
  br i1 %726, label %727, label %728, !dbg !8380  ; [debug line = 347:9]

; <label>:727                                     ; preds = %718
  store i1 true, i1* %is_duplicated12, align 1, !dbg !8381 ; [debug line = 348:10]
  br label %732, !dbg !8383                       ; [debug line = 349:10]

; <label>:728                                     ; preds = %718, %709, %700, %691, %682, %673
  br label %729, !dbg !8384                       ; [debug line = 351:8]

; <label>:729                                     ; preds = %728
  %730 = load i32* %i13, align 4, !dbg !8385      ; [#uses=1 type=i32] [debug line = 341:41]
  %731 = add nsw i32 %730, 1, !dbg !8385          ; [#uses=1 type=i32] [debug line = 341:41]
  store i32 %731, i32* %i13, align 4, !dbg !8385  ; [debug line = 341:41]
  br label %669, !dbg !8385                       ; [debug line = 341:41]

; <label>:732                                     ; preds = %727, %669
  %733 = load i1* %is_duplicated12, align 1, !dbg !8386 ; [#uses=1 type=i1] [debug line = 352:8]
  br i1 %733, label %741, label %734, !dbg !8386  ; [debug line = 352:8]

; <label>:734                                     ; preds = %732
  %735 = load i32* @_ZL11int_clr_num, align 4, !dbg !8387 ; [#uses=1 type=i32] [debug line = 353:9]
  %736 = sext i32 %735 to i64, !dbg !8387         ; [#uses=1 type=i64] [debug line = 353:9]
  %737 = getelementptr inbounds [512 x %struct.envelope]* @_ZL17int_clr2snd_array, i32 0, i64 %736, !dbg !8387 ; [#uses=1 type=%struct.envelope*] [debug line = 353:9]
  %738 = call %struct.envelope* @_ZN8envelopeaSERKS_(%struct.envelope* %737, %struct.envelope* %temp_diff_src_or_type10), !dbg !8387 ; [#uses=0 type=%struct.envelope*] [debug line = 353:9]
  %739 = load i32* @_ZL11int_clr_num, align 4, !dbg !8389 ; [#uses=1 type=i32] [debug line = 354:9]
  %740 = add nsw i32 %739, 1, !dbg !8389          ; [#uses=1 type=i32] [debug line = 354:9]
  store i32 %740, i32* @_ZL11int_clr_num, align 4, !dbg !8389 ; [debug line = 354:9]
  br label %741, !dbg !8390                       ; [debug line = 355:8]

; <label>:741                                     ; preds = %734, %732
  br label %742, !dbg !8391                       ; [debug line = 356:7]

; <label>:742                                     ; preds = %741, %664
  br label %743

; <label>:743                                     ; preds = %742, %663
  br label %907, !dbg !8392                       ; [debug line = 357:6]

; <label>:744                                     ; preds = %582
  %745 = getelementptr inbounds %struct.stream_packet* %recv_data, i32 0, i32 4, !dbg !8393 ; [#uses=1 type=%struct.ap_uint.15*] [debug line = 358:14]
  %746 = bitcast %struct.ap_uint.15* %745 to %struct.ap_int_base.16*, !dbg !8393 ; [#uses=1 type=%struct.ap_int_base.16*] [debug line = 358:14]
  call void @_ZN11ap_int_baseILi40ELb0ELb1EEclEii(%struct.ap_range_ref.18* sret %34, %struct.ap_int_base.16* %746, i32 3, i32 0), !dbg !8393 ; [debug line = 358:14]
  %747 = call zeroext i1 @_ZeqILi40ELb0EEbRK12ap_range_refIXT_EXT0_EEi(%struct.ap_range_ref.18* %34, i32 1), !dbg !8393 ; [#uses=1 type=i1] [debug line = 358:14]
  br i1 %747, label %748, label %906, !dbg !8393  ; [debug line = 358:14]

; <label>:748                                     ; preds = %744
  call void @llvm.dbg.declare(metadata !{%struct.envelope* %temp_diff_src_or_type14}, metadata !8394), !dbg !8396 ; [debug line = 359:16] [debug variable = temp_diff_src_or_type]
  call void @_ZN8envelopeC1Ev(%struct.envelope* %temp_diff_src_or_type14), !dbg !8397 ; [debug line = 359:37]
  call void @_Z18packet_to_envelopeP13stream_packetP8envelope(%struct.stream_packet* %recv_data, %struct.envelope* %temp_diff_src_or_type14), !dbg !8398 ; [debug line = 360:7]
  %749 = getelementptr inbounds %struct.envelope* %temp_diff_src_or_type14, i32 0, i32 1, !dbg !8399 ; [#uses=1 type=%struct.ap_uint*] [debug line = 361:10]
  %750 = bitcast %struct.ap_uint* %749 to %struct.ap_int_base*, !dbg !8399 ; [#uses=1 type=%struct.ap_int_base*] [debug line = 361:10]
  %751 = call zeroext i1 @_ZeqILi8ELb0EEbRK11ap_int_baseIXT_EXT0_EXleT_Li64EEEi(%struct.ap_int_base* %750, i32 0), !dbg !8399 ; [#uses=1 type=i1] [debug line = 361:10]
  br i1 %751, label %752, label %826, !dbg !8399  ; [debug line = 361:10]

; <label>:752                                     ; preds = %748
  call void @llvm.dbg.declare(metadata !{i1* %is_duplicated15}, metadata !8400), !dbg !8402 ; [debug line = 362:13] [debug variable = is_duplicated]
  store i1 false, i1* %is_duplicated15, align 1, !dbg !8403 ; [debug line = 362:30]
  call void @llvm.dbg.declare(metadata !{i32* %i16}, metadata !8404), !dbg !8406 ; [debug line = 363:16] [debug variable = i]
  store i32 0, i32* %i16, align 4, !dbg !8407     ; [debug line = 363:22]
  br label %753, !dbg !8407                       ; [debug line = 363:22]

; <label>:753                                     ; preds = %813, %752
  %754 = load i32* %i16, align 4, !dbg !8407      ; [#uses=1 type=i32] [debug line = 363:22]
  %755 = load i32* @_ZL13float_req_num, align 4, !dbg !8407 ; [#uses=1 type=i32] [debug line = 363:22]
  %756 = icmp slt i32 %754, %755, !dbg !8407      ; [#uses=1 type=i1] [debug line = 363:22]
  br i1 %756, label %757, label %816, !dbg !8407  ; [debug line = 363:22]

; <label>:757                                     ; preds = %753
  %758 = load i32* %i16, align 4, !dbg !8408      ; [#uses=1 type=i32] [debug line = 364:12]
  %759 = sext i32 %758 to i64, !dbg !8408         ; [#uses=1 type=i64] [debug line = 364:12]
  %760 = getelementptr inbounds [512 x %struct.envelope]* @_ZL19float_request_array, i32 0, i64 %759, !dbg !8408 ; [#uses=1 type=%struct.envelope*] [debug line = 364:12]
  %761 = getelementptr inbounds %struct.envelope* %760, i32 0, i32 0, !dbg !8408 ; [#uses=1 type=%struct.ap_uint*] [debug line = 364:12]
  %762 = bitcast %struct.ap_uint* %761 to %struct.ap_int_base*, !dbg !8408 ; [#uses=1 type=%struct.ap_int_base*] [debug line = 364:12]
  %763 = getelementptr inbounds %struct.envelope* %temp_diff_src_or_type14, i32 0, i32 0, !dbg !8408 ; [#uses=1 type=%struct.ap_uint*] [debug line = 364:12]
  %764 = bitcast %struct.ap_uint* %763 to %struct.ap_int_base*, !dbg !8408 ; [#uses=1 type=%struct.ap_int_base*] [debug line = 364:12]
  %765 = call zeroext i1 @_ZNK11ap_int_baseILi8ELb0ELb1EEeqILi8ELb0EEEbRKS_IXT_EXT0_EXleT_Li64EEE(%struct.ap_int_base* %762, %struct.ap_int_base* %764), !dbg !8408 ; [#uses=1 type=i1] [debug line = 364:12]
  br i1 %765, label %766, label %812, !dbg !8408  ; [debug line = 364:12]

; <label>:766                                     ; preds = %757
  %767 = load i32* %i16, align 4, !dbg !8410      ; [#uses=1 type=i32] [debug line = 365:9]
  %768 = sext i32 %767 to i64, !dbg !8410         ; [#uses=1 type=i64] [debug line = 365:9]
  %769 = getelementptr inbounds [512 x %struct.envelope]* @_ZL19float_request_array, i32 0, i64 %768, !dbg !8410 ; [#uses=1 type=%struct.envelope*] [debug line = 365:9]
  %770 = getelementptr inbounds %struct.envelope* %769, i32 0, i32 6, !dbg !8410 ; [#uses=1 type=%struct.ap_uint.6*] [debug line = 365:9]
  %771 = bitcast %struct.ap_uint.6* %770 to %struct.ap_int_base.7*, !dbg !8410 ; [#uses=1 type=%struct.ap_int_base.7*] [debug line = 365:9]
  %772 = getelementptr inbounds %struct.envelope* %temp_diff_src_or_type14, i32 0, i32 6, !dbg !8410 ; [#uses=1 type=%struct.ap_uint.6*] [debug line = 365:9]
  %773 = bitcast %struct.ap_uint.6* %772 to %struct.ap_int_base.7*, !dbg !8410 ; [#uses=1 type=%struct.ap_int_base.7*] [debug line = 365:9]
  %774 = call zeroext i1 @_ZNK11ap_int_baseILi16ELb0ELb1EEeqILi16ELb0EEEbRKS_IXT_EXT0_EXleT_Li64EEE(%struct.ap_int_base.7* %771, %struct.ap_int_base.7* %773), !dbg !8410 ; [#uses=1 type=i1] [debug line = 365:9]
  br i1 %774, label %775, label %812, !dbg !8410  ; [debug line = 365:9]

; <label>:775                                     ; preds = %766
  %776 = load i32* %i16, align 4, !dbg !8411      ; [#uses=1 type=i32] [debug line = 366:9]
  %777 = sext i32 %776 to i64, !dbg !8411         ; [#uses=1 type=i64] [debug line = 366:9]
  %778 = getelementptr inbounds [512 x %struct.envelope]* @_ZL19float_request_array, i32 0, i64 %777, !dbg !8411 ; [#uses=1 type=%struct.envelope*] [debug line = 366:9]
  %779 = getelementptr inbounds %struct.envelope* %778, i32 0, i32 1, !dbg !8411 ; [#uses=1 type=%struct.ap_uint*] [debug line = 366:9]
  %780 = bitcast %struct.ap_uint* %779 to %struct.ap_int_base*, !dbg !8411 ; [#uses=1 type=%struct.ap_int_base*] [debug line = 366:9]
  %781 = getelementptr inbounds %struct.envelope* %temp_diff_src_or_type14, i32 0, i32 1, !dbg !8411 ; [#uses=1 type=%struct.ap_uint*] [debug line = 366:9]
  %782 = bitcast %struct.ap_uint* %781 to %struct.ap_int_base*, !dbg !8411 ; [#uses=1 type=%struct.ap_int_base*] [debug line = 366:9]
  %783 = call zeroext i1 @_ZNK11ap_int_baseILi8ELb0ELb1EEeqILi8ELb0EEEbRKS_IXT_EXT0_EXleT_Li64EEE(%struct.ap_int_base* %780, %struct.ap_int_base* %782), !dbg !8411 ; [#uses=1 type=i1] [debug line = 366:9]
  br i1 %783, label %784, label %812, !dbg !8411  ; [debug line = 366:9]

; <label>:784                                     ; preds = %775
  %785 = load i32* %i16, align 4, !dbg !8412      ; [#uses=1 type=i32] [debug line = 367:9]
  %786 = sext i32 %785 to i64, !dbg !8412         ; [#uses=1 type=i64] [debug line = 367:9]
  %787 = getelementptr inbounds [512 x %struct.envelope]* @_ZL19float_request_array, i32 0, i64 %786, !dbg !8412 ; [#uses=1 type=%struct.envelope*] [debug line = 367:9]
  %788 = getelementptr inbounds %struct.envelope* %787, i32 0, i32 2, !dbg !8412 ; [#uses=1 type=%struct.ap_uint.0*] [debug line = 367:9]
  %789 = bitcast %struct.ap_uint.0* %788 to %struct.ap_int_base.1*, !dbg !8412 ; [#uses=1 type=%struct.ap_int_base.1*] [debug line = 367:9]
  %790 = getelementptr inbounds %struct.envelope* %temp_diff_src_or_type14, i32 0, i32 2, !dbg !8412 ; [#uses=1 type=%struct.ap_uint.0*] [debug line = 367:9]
  %791 = bitcast %struct.ap_uint.0* %790 to %struct.ap_int_base.1*, !dbg !8412 ; [#uses=1 type=%struct.ap_int_base.1*] [debug line = 367:9]
  %792 = call zeroext i1 @_ZNK11ap_int_baseILi32ELb0ELb1EEeqILi32ELb0EEEbRKS_IXT_EXT0_EXleT_Li64EEE(%struct.ap_int_base.1* %789, %struct.ap_int_base.1* %791), !dbg !8412 ; [#uses=1 type=i1] [debug line = 367:9]
  br i1 %792, label %793, label %812, !dbg !8412  ; [debug line = 367:9]

; <label>:793                                     ; preds = %784
  %794 = load i32* %i16, align 4, !dbg !8413      ; [#uses=1 type=i32] [debug line = 368:9]
  %795 = sext i32 %794 to i64, !dbg !8413         ; [#uses=1 type=i64] [debug line = 368:9]
  %796 = getelementptr inbounds [512 x %struct.envelope]* @_ZL19float_request_array, i32 0, i64 %795, !dbg !8413 ; [#uses=1 type=%struct.envelope*] [debug line = 368:9]
  %797 = getelementptr inbounds %struct.envelope* %796, i32 0, i32 3, !dbg !8413 ; [#uses=1 type=%struct.ap_uint*] [debug line = 368:9]
  %798 = bitcast %struct.ap_uint* %797 to %struct.ap_int_base*, !dbg !8413 ; [#uses=1 type=%struct.ap_int_base*] [debug line = 368:9]
  %799 = getelementptr inbounds %struct.envelope* %temp_diff_src_or_type14, i32 0, i32 3, !dbg !8413 ; [#uses=1 type=%struct.ap_uint*] [debug line = 368:9]
  %800 = bitcast %struct.ap_uint* %799 to %struct.ap_int_base*, !dbg !8413 ; [#uses=1 type=%struct.ap_int_base*] [debug line = 368:9]
  %801 = call zeroext i1 @_ZNK11ap_int_baseILi8ELb0ELb1EEeqILi8ELb0EEEbRKS_IXT_EXT0_EXleT_Li64EEE(%struct.ap_int_base* %798, %struct.ap_int_base* %800), !dbg !8413 ; [#uses=1 type=i1] [debug line = 368:9]
  br i1 %801, label %802, label %812, !dbg !8413  ; [debug line = 368:9]

; <label>:802                                     ; preds = %793
  %803 = load i32* %i16, align 4, !dbg !8414      ; [#uses=1 type=i32] [debug line = 369:9]
  %804 = sext i32 %803 to i64, !dbg !8414         ; [#uses=1 type=i64] [debug line = 369:9]
  %805 = getelementptr inbounds [512 x %struct.envelope]* @_ZL19float_request_array, i32 0, i64 %804, !dbg !8414 ; [#uses=1 type=%struct.envelope*] [debug line = 369:9]
  %806 = getelementptr inbounds %struct.envelope* %805, i32 0, i32 4, !dbg !8414 ; [#uses=1 type=%struct.ap_uint.3*] [debug line = 369:9]
  %807 = bitcast %struct.ap_uint.3* %806 to %struct.ap_int_base.4*, !dbg !8414 ; [#uses=1 type=%struct.ap_int_base.4*] [debug line = 369:9]
  %808 = getelementptr inbounds %struct.envelope* %temp_diff_src_or_type14, i32 0, i32 4, !dbg !8414 ; [#uses=1 type=%struct.ap_uint.3*] [debug line = 369:9]
  %809 = bitcast %struct.ap_uint.3* %808 to %struct.ap_int_base.4*, !dbg !8414 ; [#uses=1 type=%struct.ap_int_base.4*] [debug line = 369:9]
  %810 = call zeroext i1 @_ZNK11ap_int_baseILi4ELb0ELb1EEeqILi4ELb0EEEbRKS_IXT_EXT0_EXleT_Li64EEE(%struct.ap_int_base.4* %807, %struct.ap_int_base.4* %809), !dbg !8414 ; [#uses=1 type=i1] [debug line = 369:9]
  br i1 %810, label %811, label %812, !dbg !8414  ; [debug line = 369:9]

; <label>:811                                     ; preds = %802
  store i1 true, i1* %is_duplicated15, align 1, !dbg !8415 ; [debug line = 370:10]
  br label %816, !dbg !8417                       ; [debug line = 371:10]

; <label>:812                                     ; preds = %802, %793, %784, %775, %766, %757
  br label %813, !dbg !8418                       ; [debug line = 373:8]

; <label>:813                                     ; preds = %812
  %814 = load i32* %i16, align 4, !dbg !8419      ; [#uses=1 type=i32] [debug line = 363:43]
  %815 = add nsw i32 %814, 1, !dbg !8419          ; [#uses=1 type=i32] [debug line = 363:43]
  store i32 %815, i32* %i16, align 4, !dbg !8419  ; [debug line = 363:43]
  br label %753, !dbg !8419                       ; [debug line = 363:43]

; <label>:816                                     ; preds = %811, %753
  %817 = load i1* %is_duplicated15, align 1, !dbg !8420 ; [#uses=1 type=i1] [debug line = 374:8]
  br i1 %817, label %825, label %818, !dbg !8420  ; [debug line = 374:8]

; <label>:818                                     ; preds = %816
  %819 = load i32* @_ZL13float_req_num, align 4, !dbg !8421 ; [#uses=1 type=i32] [debug line = 375:9]
  %820 = sext i32 %819 to i64, !dbg !8421         ; [#uses=1 type=i64] [debug line = 375:9]
  %821 = getelementptr inbounds [512 x %struct.envelope]* @_ZL19float_request_array, i32 0, i64 %820, !dbg !8421 ; [#uses=1 type=%struct.envelope*] [debug line = 375:9]
  %822 = call %struct.envelope* @_ZN8envelopeaSERKS_(%struct.envelope* %821, %struct.envelope* %temp_diff_src_or_type14), !dbg !8421 ; [#uses=0 type=%struct.envelope*] [debug line = 375:9]
  %823 = load i32* @_ZL13float_req_num, align 4, !dbg !8423 ; [#uses=1 type=i32] [debug line = 376:9]
  %824 = add nsw i32 %823, 1, !dbg !8423          ; [#uses=1 type=i32] [debug line = 376:9]
  store i32 %824, i32* @_ZL13float_req_num, align 4, !dbg !8423 ; [debug line = 376:9]
  br label %825, !dbg !8424                       ; [debug line = 377:8]

; <label>:825                                     ; preds = %818, %816
  br label %905, !dbg !8425                       ; [debug line = 378:7]

; <label>:826                                     ; preds = %748
  %827 = getelementptr inbounds %struct.envelope* %temp_diff_src_or_type14, i32 0, i32 1, !dbg !8426 ; [#uses=1 type=%struct.ap_uint*] [debug line = 379:15]
  %828 = bitcast %struct.ap_uint* %827 to %struct.ap_int_base*, !dbg !8426 ; [#uses=1 type=%struct.ap_int_base*] [debug line = 379:15]
  %829 = call zeroext i1 @_ZeqILi8ELb0EEbRK11ap_int_baseIXT_EXT0_EXleT_Li64EEEi(%struct.ap_int_base* %828, i32 1), !dbg !8426 ; [#uses=1 type=i1] [debug line = 379:15]
  br i1 %829, label %830, label %904, !dbg !8426  ; [debug line = 379:15]

; <label>:830                                     ; preds = %826
  call void @llvm.dbg.declare(metadata !{i1* %is_duplicated17}, metadata !8427), !dbg !8429 ; [debug line = 380:13] [debug variable = is_duplicated]
  store i1 false, i1* %is_duplicated17, align 1, !dbg !8430 ; [debug line = 380:30]
  call void @llvm.dbg.declare(metadata !{i32* %i18}, metadata !8431), !dbg !8433 ; [debug line = 381:16] [debug variable = i]
  store i32 0, i32* %i18, align 4, !dbg !8434     ; [debug line = 381:22]
  br label %831, !dbg !8434                       ; [debug line = 381:22]

; <label>:831                                     ; preds = %891, %830
  %832 = load i32* %i18, align 4, !dbg !8434      ; [#uses=1 type=i32] [debug line = 381:22]
  %833 = load i32* @_ZL13float_clr_num, align 4, !dbg !8434 ; [#uses=1 type=i32] [debug line = 381:22]
  %834 = icmp slt i32 %832, %833, !dbg !8434      ; [#uses=1 type=i1] [debug line = 381:22]
  br i1 %834, label %835, label %894, !dbg !8434  ; [debug line = 381:22]

; <label>:835                                     ; preds = %831
  %836 = load i32* %i18, align 4, !dbg !8435      ; [#uses=1 type=i32] [debug line = 382:12]
  %837 = sext i32 %836 to i64, !dbg !8435         ; [#uses=1 type=i64] [debug line = 382:12]
  %838 = getelementptr inbounds [512 x %struct.envelope]* @_ZL19float_clr2snd_array, i32 0, i64 %837, !dbg !8435 ; [#uses=1 type=%struct.envelope*] [debug line = 382:12]
  %839 = getelementptr inbounds %struct.envelope* %838, i32 0, i32 0, !dbg !8435 ; [#uses=1 type=%struct.ap_uint*] [debug line = 382:12]
  %840 = bitcast %struct.ap_uint* %839 to %struct.ap_int_base*, !dbg !8435 ; [#uses=1 type=%struct.ap_int_base*] [debug line = 382:12]
  %841 = getelementptr inbounds %struct.envelope* %temp_diff_src_or_type14, i32 0, i32 0, !dbg !8435 ; [#uses=1 type=%struct.ap_uint*] [debug line = 382:12]
  %842 = bitcast %struct.ap_uint* %841 to %struct.ap_int_base*, !dbg !8435 ; [#uses=1 type=%struct.ap_int_base*] [debug line = 382:12]
  %843 = call zeroext i1 @_ZNK11ap_int_baseILi8ELb0ELb1EEeqILi8ELb0EEEbRKS_IXT_EXT0_EXleT_Li64EEE(%struct.ap_int_base* %840, %struct.ap_int_base* %842), !dbg !8435 ; [#uses=1 type=i1] [debug line = 382:12]
  br i1 %843, label %844, label %890, !dbg !8435  ; [debug line = 382:12]

; <label>:844                                     ; preds = %835
  %845 = load i32* %i18, align 4, !dbg !8437      ; [#uses=1 type=i32] [debug line = 383:9]
  %846 = sext i32 %845 to i64, !dbg !8437         ; [#uses=1 type=i64] [debug line = 383:9]
  %847 = getelementptr inbounds [512 x %struct.envelope]* @_ZL19float_clr2snd_array, i32 0, i64 %846, !dbg !8437 ; [#uses=1 type=%struct.envelope*] [debug line = 383:9]
  %848 = getelementptr inbounds %struct.envelope* %847, i32 0, i32 6, !dbg !8437 ; [#uses=1 type=%struct.ap_uint.6*] [debug line = 383:9]
  %849 = bitcast %struct.ap_uint.6* %848 to %struct.ap_int_base.7*, !dbg !8437 ; [#uses=1 type=%struct.ap_int_base.7*] [debug line = 383:9]
  %850 = getelementptr inbounds %struct.envelope* %temp_diff_src_or_type14, i32 0, i32 6, !dbg !8437 ; [#uses=1 type=%struct.ap_uint.6*] [debug line = 383:9]
  %851 = bitcast %struct.ap_uint.6* %850 to %struct.ap_int_base.7*, !dbg !8437 ; [#uses=1 type=%struct.ap_int_base.7*] [debug line = 383:9]
  %852 = call zeroext i1 @_ZNK11ap_int_baseILi16ELb0ELb1EEeqILi16ELb0EEEbRKS_IXT_EXT0_EXleT_Li64EEE(%struct.ap_int_base.7* %849, %struct.ap_int_base.7* %851), !dbg !8437 ; [#uses=1 type=i1] [debug line = 383:9]
  br i1 %852, label %853, label %890, !dbg !8437  ; [debug line = 383:9]

; <label>:853                                     ; preds = %844
  %854 = load i32* %i18, align 4, !dbg !8438      ; [#uses=1 type=i32] [debug line = 384:9]
  %855 = sext i32 %854 to i64, !dbg !8438         ; [#uses=1 type=i64] [debug line = 384:9]
  %856 = getelementptr inbounds [512 x %struct.envelope]* @_ZL19float_clr2snd_array, i32 0, i64 %855, !dbg !8438 ; [#uses=1 type=%struct.envelope*] [debug line = 384:9]
  %857 = getelementptr inbounds %struct.envelope* %856, i32 0, i32 1, !dbg !8438 ; [#uses=1 type=%struct.ap_uint*] [debug line = 384:9]
  %858 = bitcast %struct.ap_uint* %857 to %struct.ap_int_base*, !dbg !8438 ; [#uses=1 type=%struct.ap_int_base*] [debug line = 384:9]
  %859 = getelementptr inbounds %struct.envelope* %temp_diff_src_or_type14, i32 0, i32 1, !dbg !8438 ; [#uses=1 type=%struct.ap_uint*] [debug line = 384:9]
  %860 = bitcast %struct.ap_uint* %859 to %struct.ap_int_base*, !dbg !8438 ; [#uses=1 type=%struct.ap_int_base*] [debug line = 384:9]
  %861 = call zeroext i1 @_ZNK11ap_int_baseILi8ELb0ELb1EEeqILi8ELb0EEEbRKS_IXT_EXT0_EXleT_Li64EEE(%struct.ap_int_base* %858, %struct.ap_int_base* %860), !dbg !8438 ; [#uses=1 type=i1] [debug line = 384:9]
  br i1 %861, label %862, label %890, !dbg !8438  ; [debug line = 384:9]

; <label>:862                                     ; preds = %853
  %863 = load i32* %i18, align 4, !dbg !8439      ; [#uses=1 type=i32] [debug line = 385:9]
  %864 = sext i32 %863 to i64, !dbg !8439         ; [#uses=1 type=i64] [debug line = 385:9]
  %865 = getelementptr inbounds [512 x %struct.envelope]* @_ZL19float_clr2snd_array, i32 0, i64 %864, !dbg !8439 ; [#uses=1 type=%struct.envelope*] [debug line = 385:9]
  %866 = getelementptr inbounds %struct.envelope* %865, i32 0, i32 2, !dbg !8439 ; [#uses=1 type=%struct.ap_uint.0*] [debug line = 385:9]
  %867 = bitcast %struct.ap_uint.0* %866 to %struct.ap_int_base.1*, !dbg !8439 ; [#uses=1 type=%struct.ap_int_base.1*] [debug line = 385:9]
  %868 = getelementptr inbounds %struct.envelope* %temp_diff_src_or_type14, i32 0, i32 2, !dbg !8439 ; [#uses=1 type=%struct.ap_uint.0*] [debug line = 385:9]
  %869 = bitcast %struct.ap_uint.0* %868 to %struct.ap_int_base.1*, !dbg !8439 ; [#uses=1 type=%struct.ap_int_base.1*] [debug line = 385:9]
  %870 = call zeroext i1 @_ZNK11ap_int_baseILi32ELb0ELb1EEeqILi32ELb0EEEbRKS_IXT_EXT0_EXleT_Li64EEE(%struct.ap_int_base.1* %867, %struct.ap_int_base.1* %869), !dbg !8439 ; [#uses=1 type=i1] [debug line = 385:9]
  br i1 %870, label %871, label %890, !dbg !8439  ; [debug line = 385:9]

; <label>:871                                     ; preds = %862
  %872 = load i32* %i18, align 4, !dbg !8440      ; [#uses=1 type=i32] [debug line = 386:9]
  %873 = sext i32 %872 to i64, !dbg !8440         ; [#uses=1 type=i64] [debug line = 386:9]
  %874 = getelementptr inbounds [512 x %struct.envelope]* @_ZL19float_clr2snd_array, i32 0, i64 %873, !dbg !8440 ; [#uses=1 type=%struct.envelope*] [debug line = 386:9]
  %875 = getelementptr inbounds %struct.envelope* %874, i32 0, i32 3, !dbg !8440 ; [#uses=1 type=%struct.ap_uint*] [debug line = 386:9]
  %876 = bitcast %struct.ap_uint* %875 to %struct.ap_int_base*, !dbg !8440 ; [#uses=1 type=%struct.ap_int_base*] [debug line = 386:9]
  %877 = getelementptr inbounds %struct.envelope* %temp_diff_src_or_type14, i32 0, i32 3, !dbg !8440 ; [#uses=1 type=%struct.ap_uint*] [debug line = 386:9]
  %878 = bitcast %struct.ap_uint* %877 to %struct.ap_int_base*, !dbg !8440 ; [#uses=1 type=%struct.ap_int_base*] [debug line = 386:9]
  %879 = call zeroext i1 @_ZNK11ap_int_baseILi8ELb0ELb1EEeqILi8ELb0EEEbRKS_IXT_EXT0_EXleT_Li64EEE(%struct.ap_int_base* %876, %struct.ap_int_base* %878), !dbg !8440 ; [#uses=1 type=i1] [debug line = 386:9]
  br i1 %879, label %880, label %890, !dbg !8440  ; [debug line = 386:9]

; <label>:880                                     ; preds = %871
  %881 = load i32* %i18, align 4, !dbg !8441      ; [#uses=1 type=i32] [debug line = 387:9]
  %882 = sext i32 %881 to i64, !dbg !8441         ; [#uses=1 type=i64] [debug line = 387:9]
  %883 = getelementptr inbounds [512 x %struct.envelope]* @_ZL19float_clr2snd_array, i32 0, i64 %882, !dbg !8441 ; [#uses=1 type=%struct.envelope*] [debug line = 387:9]
  %884 = getelementptr inbounds %struct.envelope* %883, i32 0, i32 4, !dbg !8441 ; [#uses=1 type=%struct.ap_uint.3*] [debug line = 387:9]
  %885 = bitcast %struct.ap_uint.3* %884 to %struct.ap_int_base.4*, !dbg !8441 ; [#uses=1 type=%struct.ap_int_base.4*] [debug line = 387:9]
  %886 = getelementptr inbounds %struct.envelope* %temp_diff_src_or_type14, i32 0, i32 4, !dbg !8441 ; [#uses=1 type=%struct.ap_uint.3*] [debug line = 387:9]
  %887 = bitcast %struct.ap_uint.3* %886 to %struct.ap_int_base.4*, !dbg !8441 ; [#uses=1 type=%struct.ap_int_base.4*] [debug line = 387:9]
  %888 = call zeroext i1 @_ZNK11ap_int_baseILi4ELb0ELb1EEeqILi4ELb0EEEbRKS_IXT_EXT0_EXleT_Li64EEE(%struct.ap_int_base.4* %885, %struct.ap_int_base.4* %887), !dbg !8441 ; [#uses=1 type=i1] [debug line = 387:9]
  br i1 %888, label %889, label %890, !dbg !8441  ; [debug line = 387:9]

; <label>:889                                     ; preds = %880
  store i1 true, i1* %is_duplicated17, align 1, !dbg !8442 ; [debug line = 388:10]
  br label %894, !dbg !8444                       ; [debug line = 389:10]

; <label>:890                                     ; preds = %880, %871, %862, %853, %844, %835
  br label %891, !dbg !8445                       ; [debug line = 391:8]

; <label>:891                                     ; preds = %890
  %892 = load i32* %i18, align 4, !dbg !8446      ; [#uses=1 type=i32] [debug line = 381:43]
  %893 = add nsw i32 %892, 1, !dbg !8446          ; [#uses=1 type=i32] [debug line = 381:43]
  store i32 %893, i32* %i18, align 4, !dbg !8446  ; [debug line = 381:43]
  br label %831, !dbg !8446                       ; [debug line = 381:43]

; <label>:894                                     ; preds = %889, %831
  %895 = load i1* %is_duplicated17, align 1, !dbg !8447 ; [#uses=1 type=i1] [debug line = 392:8]
  br i1 %895, label %903, label %896, !dbg !8447  ; [debug line = 392:8]

; <label>:896                                     ; preds = %894
  %897 = load i32* @_ZL13float_clr_num, align 4, !dbg !8448 ; [#uses=1 type=i32] [debug line = 393:9]
  %898 = sext i32 %897 to i64, !dbg !8448         ; [#uses=1 type=i64] [debug line = 393:9]
  %899 = getelementptr inbounds [512 x %struct.envelope]* @_ZL19float_clr2snd_array, i32 0, i64 %898, !dbg !8448 ; [#uses=1 type=%struct.envelope*] [debug line = 393:9]
  %900 = call %struct.envelope* @_ZN8envelopeaSERKS_(%struct.envelope* %899, %struct.envelope* %temp_diff_src_or_type14), !dbg !8448 ; [#uses=0 type=%struct.envelope*] [debug line = 393:9]
  %901 = load i32* @_ZL13float_clr_num, align 4, !dbg !8450 ; [#uses=1 type=i32] [debug line = 394:9]
  %902 = add nsw i32 %901, 1, !dbg !8450          ; [#uses=1 type=i32] [debug line = 394:9]
  store i32 %902, i32* @_ZL13float_clr_num, align 4, !dbg !8450 ; [debug line = 394:9]
  br label %903, !dbg !8451                       ; [debug line = 395:8]

; <label>:903                                     ; preds = %896, %894
  br label %904, !dbg !8452                       ; [debug line = 396:7]

; <label>:904                                     ; preds = %903, %826
  br label %905

; <label>:905                                     ; preds = %904, %825
  br label %906, !dbg !8453                       ; [debug line = 397:6]

; <label>:906                                     ; preds = %905, %744
  br label %907

; <label>:907                                     ; preds = %906, %743
  br label %908, !dbg !8454                       ; [debug line = 398:5]

; <label>:908                                     ; preds = %907, %578
  br label %909

; <label>:909                                     ; preds = %908, %577
  br label %910

; <label>:910                                     ; preds = %909
  br label %911, !dbg !8455                       ; [debug line = 399:4]

; <label>:911                                     ; preds = %910, %537
  %912 = load i1* %error_is_seen, align 1, !dbg !8456 ; [#uses=1 type=i1] [debug line = 401:4]
  br i1 %912, label %913, label %933, !dbg !8456  ; [debug line = 401:4]

; <label>:913                                     ; preds = %911
  call void @llvm.dbg.declare(metadata !{%struct.stream_packet* %garbage}, metadata !8457), !dbg !8459 ; [debug line = 403:19] [debug variable = garbage]
  call void @_ZN13stream_packetC1Ev(%struct.stream_packet* %garbage), !dbg !8460 ; [debug line = 403:26]
  store i1 false, i1* %error_is_seen, align 1, !dbg !8461 ; [debug line = 404:5]
  %914 = getelementptr inbounds %struct.stream_packet* %garbage, i32 0, i32 0, !dbg !8462 ; [#uses=1 type=%struct.ap_uint.9*] [debug line = 405:5]
  call void @_ZN7ap_uintILi64EEC1Ei(%struct.ap_uint.9* %35, i32 0), !dbg !8462 ; [debug line = 405:5]
  %915 = call %struct.ap_uint.9* @_ZN7ap_uintILi64EEaSERKS0_(%struct.ap_uint.9* %914, %struct.ap_uint.9* %35), !dbg !8462 ; [#uses=0 type=%struct.ap_uint.9*] [debug line = 405:5]
  %916 = getelementptr inbounds %struct.stream_packet* %to_send_data, i32 0, i32 2, !dbg !8463 ; [#uses=1 type=%struct.ap_uint.12*] [debug line = 406:5]
  call void @_ZN7ap_uintILi1EEC1Ei(%struct.ap_uint.12* %36, i32 1), !dbg !8463 ; [debug line = 406:5]
  %917 = call %struct.ap_uint.12* @_ZN7ap_uintILi1EEaSERKS0_(%struct.ap_uint.12* %916, %struct.ap_uint.12* %36), !dbg !8463 ; [#uses=0 type=%struct.ap_uint.12*] [debug line = 406:5]
  %918 = getelementptr inbounds %struct.stream_packet* %to_send_data, i32 0, i32 3, !dbg !8464 ; [#uses=1 type=%struct.ap_uint*] [debug line = 407:5]
  call void @_ZN7ap_uintILi8EEC1Ei(%struct.ap_uint* %37, i32 0), !dbg !8464 ; [debug line = 407:5]
  %919 = call %struct.ap_uint* @_ZN7ap_uintILi8EEaSERKS0_(%struct.ap_uint* %918, %struct.ap_uint* %37), !dbg !8464 ; [#uses=0 type=%struct.ap_uint*] [debug line = 407:5]
  %920 = getelementptr inbounds %struct.stream_packet* %to_send_data, i32 0, i32 4, !dbg !8465 ; [#uses=1 type=%struct.ap_uint.15*] [debug line = 408:5]
  %921 = bitcast %struct.ap_uint.15* %920 to %struct.ap_int_base.16*, !dbg !8465 ; [#uses=1 type=%struct.ap_int_base.16*] [debug line = 408:5]
  call void @_ZN11ap_int_baseILi40ELb0ELb1EEclEii(%struct.ap_range_ref.18* sret %38, %struct.ap_int_base.16* %921, i32 3, i32 0), !dbg !8465 ; [debug line = 408:5]
  %922 = call %struct.ap_range_ref.18* @_ZN12ap_range_refILi40ELb0EEaSEy(%struct.ap_range_ref.18* %38, i64 1), !dbg !8465 ; [#uses=0 type=%struct.ap_range_ref.18*] [debug line = 408:5]
  %923 = getelementptr inbounds %struct.stream_packet* %to_send_data, i32 0, i32 4, !dbg !8466 ; [#uses=1 type=%struct.ap_uint.15*] [debug line = 409:5]
  %924 = bitcast %struct.ap_uint.15* %923 to %struct.ap_int_base.16*, !dbg !8466 ; [#uses=1 type=%struct.ap_int_base.16*] [debug line = 409:5]
  call void @_ZN11ap_int_baseILi40ELb0ELb1EEclEii(%struct.ap_range_ref.18* sret %39, %struct.ap_int_base.16* %924, i32 7, i32 4), !dbg !8466 ; [debug line = 409:5]
  %925 = call %struct.ap_range_ref.18* @_ZN12ap_range_refILi40ELb0EEaSEy(%struct.ap_range_ref.18* %39, i64 1), !dbg !8466 ; [#uses=0 type=%struct.ap_range_ref.18*] [debug line = 409:5]
  %926 = getelementptr inbounds %struct.stream_packet* %to_send_data, i32 0, i32 4, !dbg !8467 ; [#uses=1 type=%struct.ap_uint.15*] [debug line = 410:5]
  %927 = bitcast %struct.ap_uint.15* %926 to %struct.ap_int_base.16*, !dbg !8467 ; [#uses=1 type=%struct.ap_int_base.16*] [debug line = 410:5]
  call void @_ZN11ap_int_baseILi40ELb0ELb1EEclEii(%struct.ap_range_ref.18* sret %40, %struct.ap_int_base.16* %927, i32 39, i32 8), !dbg !8467 ; [debug line = 410:5]
  %928 = load i32* %old_seq_num, align 4, !dbg !8467 ; [#uses=1 type=i32] [debug line = 410:5]
  %929 = sext i32 %928 to i64, !dbg !8467         ; [#uses=1 type=i64] [debug line = 410:5]
  %930 = call %struct.ap_range_ref.18* @_ZN12ap_range_refILi40ELb0EEaSEy(%struct.ap_range_ref.18* %40, i64 %929), !dbg !8467 ; [#uses=0 type=%struct.ap_range_ref.18*] [debug line = 410:5]
  call void @_ZN3hls6streamI13stream_packetE5writeERKS1_(%"class.hls::stream"* @stream_out, %struct.stream_packet* %to_send_data), !dbg !8468 ; [debug line = 411:5]
  %931 = load i32* %i6, align 4, !dbg !8469       ; [#uses=1 type=i32] [debug line = 412:5]
  %932 = sub nsw i32 %931, 8, !dbg !8469          ; [#uses=1 type=i32] [debug line = 412:5]
  store i32 %932, i32* %i6, align 4, !dbg !8469   ; [debug line = 412:5]
  br label %1015, !dbg !8470                      ; [debug line = 413:5]

; <label>:933                                     ; preds = %911
  call void @llvm.dbg.declare(metadata !{i32* %j19}, metadata !8471), !dbg !8473 ; [debug line = 418:12] [debug variable = j]
  store i32 0, i32* %j19, align 4, !dbg !8474     ; [debug line = 418:18]
  br label %934, !dbg !8474                       ; [debug line = 418:18]

; <label>:934                                     ; preds = %955, %933
  %935 = load i32* %j19, align 4, !dbg !8474      ; [#uses=1 type=i32] [debug line = 418:18]
  %936 = icmp slt i32 %935, 8, !dbg !8474         ; [#uses=1 type=i1] [debug line = 418:18]
  br i1 %936, label %937, label %958, !dbg !8474  ; [debug line = 418:18]

; <label>:937                                     ; preds = %934
  %938 = getelementptr inbounds %struct.stream_packet* %to_send_data, i32 0, i32 0, !dbg !8475 ; [#uses=1 type=%struct.ap_uint.9*] [debug line = 419:5]
  %939 = bitcast %struct.ap_uint.9* %938 to %struct.ap_int_base.10*, !dbg !8475 ; [#uses=1 type=%struct.ap_int_base.10*] [debug line = 419:5]
  %940 = load i32* %j19, align 4, !dbg !8475      ; [#uses=1 type=i32] [debug line = 419:5]
  %941 = add nsw i32 %940, 1, !dbg !8475          ; [#uses=1 type=i32] [debug line = 419:5]
  %942 = mul nsw i32 %941, 8, !dbg !8475          ; [#uses=1 type=i32] [debug line = 419:5]
  %943 = sub nsw i32 %942, 1, !dbg !8475          ; [#uses=1 type=i32] [debug line = 419:5]
  %944 = load i32* %j19, align 4, !dbg !8475      ; [#uses=1 type=i32] [debug line = 419:5]
  %945 = mul nsw i32 %944, 8, !dbg !8475          ; [#uses=1 type=i32] [debug line = 419:5]
  call void @_ZN11ap_int_baseILi64ELb0ELb1EEclEii(%struct.ap_range_ref* sret %41, %struct.ap_int_base.10* %939, i32 %943, i32 %945), !dbg !8475 ; [debug line = 419:5]
  %946 = load i32* %i6, align 4, !dbg !8475       ; [#uses=1 type=i32] [debug line = 419:5]
  %947 = load i32* %j19, align 4, !dbg !8475      ; [#uses=1 type=i32] [debug line = 419:5]
  %948 = add nsw i32 %946, %947, !dbg !8475       ; [#uses=1 type=i32] [debug line = 419:5]
  %949 = sext i32 %948 to i64, !dbg !8475         ; [#uses=1 type=i64] [debug line = 419:5]
  %950 = load i8** %buff_char_ptr, align 8, !dbg !8475 ; [#uses=1 type=i8*] [debug line = 419:5]
  %951 = getelementptr inbounds i8* %950, i64 %949, !dbg !8475 ; [#uses=1 type=i8*] [debug line = 419:5]
  %952 = load i8* %951, align 1, !dbg !8475       ; [#uses=1 type=i8] [debug line = 419:5]
  %953 = sext i8 %952 to i64, !dbg !8475          ; [#uses=1 type=i64] [debug line = 419:5]
  %954 = call %struct.ap_range_ref* @_ZN12ap_range_refILi64ELb0EEaSEy(%struct.ap_range_ref* %41, i64 %953), !dbg !8475 ; [#uses=0 type=%struct.ap_range_ref*] [debug line = 419:5]
  br label %955, !dbg !8477                       ; [debug line = 420:4]

; <label>:955                                     ; preds = %937
  %956 = load i32* %j19, align 4, !dbg !8478      ; [#uses=1 type=i32] [debug line = 418:28]
  %957 = add nsw i32 %956, 1, !dbg !8478          ; [#uses=1 type=i32] [debug line = 418:28]
  store i32 %957, i32* %j19, align 4, !dbg !8478  ; [debug line = 418:28]
  br label %934, !dbg !8478                       ; [debug line = 418:28]

; <label>:958                                     ; preds = %934
  %959 = getelementptr inbounds %struct.stream_packet* %to_send_data, i32 0, i32 1, !dbg !8479 ; [#uses=1 type=%struct.ap_uint*] [debug line = 421:4]
  %960 = load i32* %5, align 4, !dbg !8479        ; [#uses=1 type=i32] [debug line = 421:4]
  call void @_ZN7ap_uintILi8EEC1Ei(%struct.ap_uint* %42, i32 %960), !dbg !8479 ; [debug line = 421:4]
  %961 = call %struct.ap_uint* @_ZN7ap_uintILi8EEaSERKS0_(%struct.ap_uint* %959, %struct.ap_uint* %42), !dbg !8479 ; [#uses=0 type=%struct.ap_uint*] [debug line = 421:4]
  %962 = load i32* %i6, align 4, !dbg !8480       ; [#uses=1 type=i32] [debug line = 423:4]
  %963 = add nsw i32 %962, 8, !dbg !8480          ; [#uses=1 type=i32] [debug line = 423:4]
  %964 = load i32* %3, align 4, !dbg !8480        ; [#uses=1 type=i32] [debug line = 423:4]
  %965 = load i3* %4, align 1, !dbg !8480         ; [#uses=1 type=i3] [debug line = 423:4]
  %966 = zext i3 %965 to i32, !dbg !8480          ; [#uses=1 type=i32] [debug line = 423:4]
  %967 = mul nsw i32 %964, %966, !dbg !8480       ; [#uses=1 type=i32] [debug line = 423:4]
  %968 = icmp sge i32 %963, %967, !dbg !8480      ; [#uses=1 type=i1] [debug line = 423:4]
  br i1 %968, label %969, label %972, !dbg !8480  ; [debug line = 423:4]

; <label>:969                                     ; preds = %958
  %970 = getelementptr inbounds %struct.stream_packet* %to_send_data, i32 0, i32 2, !dbg !8481 ; [#uses=1 type=%struct.ap_uint.12*] [debug line = 424:5]
  call void @_ZN7ap_uintILi1EEC1Ei(%struct.ap_uint.12* %43, i32 1), !dbg !8481 ; [debug line = 424:5]
  %971 = call %struct.ap_uint.12* @_ZN7ap_uintILi1EEaSERKS0_(%struct.ap_uint.12* %970, %struct.ap_uint.12* %43), !dbg !8481 ; [#uses=0 type=%struct.ap_uint.12*] [debug line = 424:5]
  br label %984, !dbg !8483                       ; [debug line = 425:4]

; <label>:972                                     ; preds = %958
  %973 = load i32* %i6, align 4, !dbg !8484       ; [#uses=1 type=i32] [debug line = 427:9]
  %974 = add nsw i32 %973, 8, !dbg !8484          ; [#uses=1 type=i32] [debug line = 427:9]
  %975 = srem i32 %974, 1488, !dbg !8484          ; [#uses=1 type=i32] [debug line = 427:9]
  %976 = icmp eq i32 %975, 0, !dbg !8484          ; [#uses=1 type=i1] [debug line = 427:9]
  br i1 %976, label %977, label %980, !dbg !8484  ; [debug line = 427:9]

; <label>:977                                     ; preds = %972
  %978 = getelementptr inbounds %struct.stream_packet* %to_send_data, i32 0, i32 2, !dbg !8485 ; [#uses=1 type=%struct.ap_uint.12*] [debug line = 428:5]
  call void @_ZN7ap_uintILi1EEC1Ei(%struct.ap_uint.12* %44, i32 1), !dbg !8485 ; [debug line = 428:5]
  %979 = call %struct.ap_uint.12* @_ZN7ap_uintILi1EEaSERKS0_(%struct.ap_uint.12* %978, %struct.ap_uint.12* %44), !dbg !8485 ; [#uses=0 type=%struct.ap_uint.12*] [debug line = 428:5]
  store i1 true, i1* %seq_inc, align 1, !dbg !8487 ; [debug line = 429:5]
  br label %983, !dbg !8488                       ; [debug line = 430:4]

; <label>:980                                     ; preds = %972
  %981 = getelementptr inbounds %struct.stream_packet* %to_send_data, i32 0, i32 2, !dbg !8489 ; [#uses=1 type=%struct.ap_uint.12*] [debug line = 432:5]
  call void @_ZN7ap_uintILi1EEC1Ei(%struct.ap_uint.12* %45, i32 0), !dbg !8489 ; [debug line = 432:5]
  %982 = call %struct.ap_uint.12* @_ZN7ap_uintILi1EEaSERKS0_(%struct.ap_uint.12* %981, %struct.ap_uint.12* %45), !dbg !8489 ; [#uses=0 type=%struct.ap_uint.12*] [debug line = 432:5]
  br label %983

; <label>:983                                     ; preds = %980, %977
  br label %984

; <label>:984                                     ; preds = %983, %969
  %985 = getelementptr inbounds %struct.stream_packet* %to_send_data, i32 0, i32 4, !dbg !8490 ; [#uses=1 type=%struct.ap_uint.15*] [debug line = 434:4]
  %986 = bitcast %struct.ap_uint.15* %985 to %struct.ap_int_base.16*, !dbg !8490 ; [#uses=1 type=%struct.ap_int_base.16*] [debug line = 434:4]
  call void @_ZN11ap_int_baseILi40ELb0ELb1EEclEii(%struct.ap_range_ref.18* sret %46, %struct.ap_int_base.16* %986, i32 3, i32 0), !dbg !8490 ; [debug line = 434:4]
  %987 = call %struct.ap_range_ref.18* @_ZN12ap_range_refILi40ELb0EEaSEy(%struct.ap_range_ref.18* %46, i64 0), !dbg !8490 ; [#uses=0 type=%struct.ap_range_ref.18*] [debug line = 434:4]
  %988 = getelementptr inbounds %struct.stream_packet* %to_send_data, i32 0, i32 4, !dbg !8491 ; [#uses=1 type=%struct.ap_uint.15*] [debug line = 435:4]
  %989 = bitcast %struct.ap_uint.15* %988 to %struct.ap_int_base.16*, !dbg !8491 ; [#uses=1 type=%struct.ap_int_base.16*] [debug line = 435:4]
  call void @_ZN11ap_int_baseILi40ELb0ELb1EEclEii(%struct.ap_range_ref.18* sret %47, %struct.ap_int_base.16* %989, i32 7, i32 4), !dbg !8491 ; [debug line = 435:4]
  %990 = call %struct.ap_range_ref.18* @_ZN12ap_range_refILi40ELb0EEaSEy(%struct.ap_range_ref.18* %47, i64 1), !dbg !8491 ; [#uses=0 type=%struct.ap_range_ref.18*] [debug line = 435:4]
  %991 = getelementptr inbounds %struct.stream_packet* %to_send_data, i32 0, i32 4, !dbg !8492 ; [#uses=1 type=%struct.ap_uint.15*] [debug line = 436:4]
  %992 = bitcast %struct.ap_uint.15* %991 to %struct.ap_int_base.16*, !dbg !8492 ; [#uses=1 type=%struct.ap_int_base.16*] [debug line = 436:4]
  call void @_ZN11ap_int_baseILi40ELb0ELb1EEclEii(%struct.ap_range_ref.18* sret %48, %struct.ap_int_base.16* %992, i32 39, i32 8), !dbg !8492 ; [debug line = 436:4]
  %993 = load i32* %seq_num, align 4, !dbg !8492  ; [#uses=1 type=i32] [debug line = 436:4]
  %994 = sext i32 %993 to i64, !dbg !8492         ; [#uses=1 type=i64] [debug line = 436:4]
  %995 = call %struct.ap_range_ref.18* @_ZN12ap_range_refILi40ELb0EEaSEy(%struct.ap_range_ref.18* %48, i64 %994), !dbg !8492 ; [#uses=0 type=%struct.ap_range_ref.18*] [debug line = 436:4]
  %996 = getelementptr inbounds %struct.stream_packet* %to_send_data, i32 0, i32 3, !dbg !8493 ; [#uses=1 type=%struct.ap_uint*] [debug line = 438:4]
  call void @_ZN7ap_uintILi8EEC1Ei(%struct.ap_uint* %49, i32 0), !dbg !8493 ; [debug line = 438:4]
  %997 = call %struct.ap_uint* @_ZN7ap_uintILi8EEaSERKS0_(%struct.ap_uint* %996, %struct.ap_uint* %49), !dbg !8493 ; [#uses=0 type=%struct.ap_uint*] [debug line = 438:4]
  %998 = load i32* %seq_num, align 4, !dbg !8494  ; [#uses=1 type=i32] [debug line = 439:4]
  %999 = icmp eq i32 %998, 2, !dbg !8494          ; [#uses=1 type=i1] [debug line = 439:4]
  br i1 %999, label %1000, label %1003, !dbg !8494 ; [debug line = 439:4]

; <label>:1000                                    ; preds = %984
  %1001 = load i1* %test, align 1, !dbg !8494     ; [#uses=1 type=i1] [debug line = 439:4]
  br i1 %1001, label %1002, label %1003, !dbg !8494 ; [debug line = 439:4]

; <label>:1002                                    ; preds = %1000
  store i1 true, i1* %test, align 1, !dbg !8495   ; [debug line = 440:5]
  br label %1009, !dbg !8497                      ; [debug line = 441:4]

; <label>:1003                                    ; preds = %1000, %984
  %1004 = load i32* %seq_num, align 4, !dbg !8498 ; [#uses=1 type=i32] [debug line = 442:9]
  %1005 = icmp eq i32 %1004, 3, !dbg !8498        ; [#uses=1 type=i1] [debug line = 442:9]
  br i1 %1005, label %1006, label %1007, !dbg !8498 ; [debug line = 442:9]

; <label>:1006                                    ; preds = %1003
  store i1 false, i1* %test, align 1, !dbg !8499  ; [debug line = 443:5]
  call void @_ZN3hls6streamI13stream_packetE5writeERKS1_(%"class.hls::stream"* @stream_out, %struct.stream_packet* %to_send_data), !dbg !8501 ; [debug line = 444:5]
  br label %1008, !dbg !8502                      ; [debug line = 445:4]

; <label>:1007                                    ; preds = %1003
  call void @_ZN3hls6streamI13stream_packetE5writeERKS1_(%"class.hls::stream"* @stream_out, %struct.stream_packet* %to_send_data), !dbg !8503 ; [debug line = 447:5]
  br label %1008

; <label>:1008                                    ; preds = %1007, %1006
  br label %1009

; <label>:1009                                    ; preds = %1008, %1002
  %1010 = load i1* %seq_inc, align 1, !dbg !8504  ; [#uses=1 type=i1] [debug line = 449:4]
  br i1 %1010, label %1011, label %1014, !dbg !8504 ; [debug line = 449:4]

; <label>:1011                                    ; preds = %1009
  %1012 = load i32* %seq_num, align 4, !dbg !8505 ; [#uses=1 type=i32] [debug line = 450:5]
  %1013 = add nsw i32 %1012, 1, !dbg !8505        ; [#uses=1 type=i32] [debug line = 450:5]
  store i32 %1013, i32* %seq_num, align 4, !dbg !8505 ; [debug line = 450:5]
  store i1 false, i1* %seq_inc, align 1, !dbg !8507 ; [debug line = 451:5]
  br label %1014, !dbg !8508                      ; [debug line = 452:4]

; <label>:1014                                    ; preds = %1011, %1009
  call void (...)* @_ssdm_RegionEnd(i8* getelementptr inbounds ([5 x i8]* @.str, i32 0, i32 0)) nounwind, !dbg !8509 ; [debug line = 453:3]
  br label %1015, !dbg !8509                      ; [debug line = 453:3]

; <label>:1015                                    ; preds = %1014, %913, %559
  %1016 = load i32* %i6, align 4, !dbg !8510      ; [#uses=1 type=i32] [debug line = 287:32]
  %1017 = add nsw i32 %1016, 8, !dbg !8510        ; [#uses=1 type=i32] [debug line = 287:32]
  store i32 %1017, i32* %i6, align 4, !dbg !8510  ; [debug line = 287:32]
  br label %530, !dbg !8510                       ; [debug line = 287:32]

; <label>:1018                                    ; preds = %530
  br label %1019, !dbg !8511                      ; [debug line = 455:3]

; <label>:1019                                    ; preds = %1396, %1018
  %1020 = load i32* %i6, align 4, !dbg !8511      ; [#uses=1 type=i32] [debug line = 455:3]
  %1021 = load i3* %4, align 1, !dbg !8511        ; [#uses=1 type=i3] [debug line = 455:3]
  %1022 = zext i3 %1021 to i32, !dbg !8511        ; [#uses=1 type=i32] [debug line = 455:3]
  %1023 = load i32* %3, align 4, !dbg !8511       ; [#uses=1 type=i32] [debug line = 455:3]
  %1024 = mul nsw i32 %1022, %1023, !dbg !8511    ; [#uses=1 type=i32] [debug line = 455:3]
  %1025 = icmp sge i32 %1020, %1024, !dbg !8511   ; [#uses=1 type=i1] [debug line = 455:3]
  br i1 %1025, label %1026, label %1397, !dbg !8511 ; [debug line = 455:3]

; <label>:1026                                    ; preds = %1019
  call void @llvm.dbg.declare(metadata !{%struct.stream_packet* %recv_data20}, metadata !8512), !dbg !8514 ; [debug line = 456:18] [debug variable = recv_data]
  call void @_ZN13stream_packetC1Ev(%struct.stream_packet* %recv_data20), !dbg !8515 ; [debug line = 456:35]
  call void @llvm.dbg.declare(metadata !{%struct.stream_packet* %useless21}, metadata !8516), !dbg !8517 ; [debug line = 456:28] [debug variable = useless]
  call void @_ZN13stream_packetC1Ev(%struct.stream_packet* %useless21), !dbg !8515 ; [debug line = 456:35]
  call void @llvm.dbg.declare(metadata !{%struct.ap_uint.12* %last22}, metadata !8518), !dbg !8519 ; [debug line = 457:15] [debug variable = last]
  call void @_ZN7ap_uintILi1EEC1Ev(%struct.ap_uint.12* %last22), !dbg !8520 ; [debug line = 457:19]
  call void @_ZN3hls6streamI13stream_packetE4readEv(%struct.stream_packet* sret %50, %"class.hls::stream"* @stream_in), !dbg !8521 ; [debug line = 458:16]
  %1027 = call %struct.stream_packet* @_ZN13stream_packetaSERKS_(%struct.stream_packet* %recv_data20, %struct.stream_packet* %50), !dbg !8521 ; [#uses=0 type=%struct.stream_packet*] [debug line = 458:16]
  %1028 = getelementptr inbounds %struct.stream_packet* %recv_data20, i32 0, i32 2, !dbg !8522 ; [#uses=1 type=%struct.ap_uint.12*] [debug line = 459:4]
  %1029 = call %struct.ap_uint.12* @_ZN7ap_uintILi1EEaSERKS0_(%struct.ap_uint.12* %last22, %struct.ap_uint.12* %1028), !dbg !8522 ; [#uses=0 type=%struct.ap_uint.12*] [debug line = 459:4]
  br label %1030, !dbg !8523                      ; [debug line = 460:4]

; <label>:1030                                    ; preds = %1033, %1026
  %1031 = bitcast %struct.ap_uint.12* %last22 to %struct.ap_int_base.13*, !dbg !8524 ; [#uses=1 type=%struct.ap_int_base.13*] [debug line = 460:10]
  %1032 = call zeroext i1 @_ZNK11ap_int_baseILi1ELb0ELb1EEntEv(%struct.ap_int_base.13* %1031), !dbg !8524 ; [#uses=1 type=i1] [debug line = 460:10]
  br i1 %1032, label %1033, label %1037, !dbg !8524 ; [debug line = 460:10]

; <label>:1033                                    ; preds = %1030
  call void @_ZN3hls6streamI13stream_packetE4readEv(%struct.stream_packet* sret %51, %"class.hls::stream"* @stream_in), !dbg !8525 ; [debug line = 461:15]
  %1034 = call %struct.stream_packet* @_ZN13stream_packetaSERKS_(%struct.stream_packet* %useless21, %struct.stream_packet* %51), !dbg !8525 ; [#uses=0 type=%struct.stream_packet*] [debug line = 461:15]
  %1035 = getelementptr inbounds %struct.stream_packet* %useless21, i32 0, i32 2, !dbg !8527 ; [#uses=1 type=%struct.ap_uint.12*] [debug line = 462:5]
  %1036 = call %struct.ap_uint.12* @_ZN7ap_uintILi1EEaSERKS0_(%struct.ap_uint.12* %last22, %struct.ap_uint.12* %1035), !dbg !8527 ; [#uses=0 type=%struct.ap_uint.12*] [debug line = 462:5]
  br label %1030, !dbg !8528                      ; [debug line = 463:4]

; <label>:1037                                    ; preds = %1030
  call void @llvm.dbg.declare(metadata !{%struct.envelope* %temp23}, metadata !8529), !dbg !8530 ; [debug line = 464:13] [debug variable = temp]
  call void @_ZN8envelopeC1Ev(%struct.envelope* %temp23), !dbg !8531 ; [debug line = 464:17]
  call void @_Z18packet_to_envelopeP13stream_packetP8envelope(%struct.stream_packet* %recv_data20, %struct.envelope* %temp23), !dbg !8532 ; [debug line = 465:4]
  %1038 = getelementptr inbounds %struct.envelope* %temp23, i32 0, i32 1, !dbg !8533 ; [#uses=1 type=%struct.ap_uint*] [debug line = 466:7]
  %1039 = bitcast %struct.ap_uint* %1038 to %struct.ap_int_base*, !dbg !8533 ; [#uses=1 type=%struct.ap_int_base*] [debug line = 466:7]
  %1040 = call zeroext i1 @_ZeqILi8ELb0EEbRK11ap_int_baseIXT_EXT0_EXleT_Li64EEEi(%struct.ap_int_base* %1039, i32 4), !dbg !8533 ; [#uses=1 type=i1] [debug line = 466:7]
  br i1 %1040, label %1041, label %1054, !dbg !8533 ; [debug line = 466:7]

; <label>:1041                                    ; preds = %1037
  %1042 = getelementptr inbounds %struct.stream_packet* %recv_data20, i32 0, i32 3, !dbg !8534 ; [#uses=1 type=%struct.ap_uint*] [debug line = 466:29]
  %1043 = bitcast %struct.ap_uint* %1042 to %struct.ap_int_base*, !dbg !8534 ; [#uses=1 type=%struct.ap_int_base*] [debug line = 466:29]
  %1044 = load i32* %5, align 4, !dbg !8534       ; [#uses=1 type=i32] [debug line = 466:29]
  %1045 = call zeroext i1 @_ZeqILi8ELb0EEbRK11ap_int_baseIXT_EXT0_EXleT_Li64EEEi(%struct.ap_int_base* %1043, i32 %1044), !dbg !8534 ; [#uses=1 type=i1] [debug line = 466:29]
  br i1 %1045, label %1046, label %1054, !dbg !8534 ; [debug line = 466:29]

; <label>:1046                                    ; preds = %1041
  %1047 = getelementptr inbounds %struct.envelope* %temp23, i32 0, i32 2, !dbg !8535 ; [#uses=1 type=%struct.ap_uint.0*] [debug line = 467:9]
  %1048 = bitcast %struct.ap_uint.0* %1047 to %struct.ap_int_base.1*, !dbg !8535 ; [#uses=1 type=%struct.ap_int_base.1*] [debug line = 467:9]
  call void @_ZmlILi32ELb0EEN11ap_int_baseIXT_EXT0_EXleT_Li64EEE5RTypeIXLi32EEXLb1EEE4multERKS1_i(%struct.ap_int_base.10* sret %52, %struct.ap_int_base.1* %1048, i32 1488), !dbg !8535 ; [debug line = 467:9]
  call void @_ZplILi64ELb1EEN11ap_int_baseIXT_EXT0_EXleT_Li64EEE5RTypeIXLi32EEXLb1EEE4plusERKS1_i(%struct.ap_int_base.21* sret %53, %struct.ap_int_base.10* %52, i32 1), !dbg !8535 ; [debug line = 467:9]
  %1049 = call i64 @_ZNK11ap_int_baseILi65ELb1ELb0EEcvxEv(%struct.ap_int_base.21* %53), !dbg !8535 ; [#uses=1 type=i64] [debug line = 467:9]
  %1050 = trunc i64 %1049 to i32, !dbg !8535      ; [#uses=1 type=i32] [debug line = 467:9]
  store i32 %1050, i32* %i6, align 4, !dbg !8535  ; [debug line = 467:9]
  %1051 = getelementptr inbounds %struct.envelope* %temp23, i32 0, i32 2, !dbg !8537 ; [#uses=1 type=%struct.ap_uint.0*] [debug line = 468:15]
  %1052 = bitcast %struct.ap_uint.0* %1051 to %struct.ap_int_base.1*, !dbg !8537 ; [#uses=1 type=%struct.ap_int_base.1*] [debug line = 468:15]
  %1053 = call i32 @_ZNK11ap_int_baseILi32ELb0ELb1EEcvjEv(%struct.ap_int_base.1* %1052), !dbg !8537 ; [#uses=1 type=i32] [debug line = 468:15]
  store i32 %1053, i32* %seq_num, align 4, !dbg !8537 ; [debug line = 468:15]
  br label %529, !dbg !8538                       ; [debug line = 470:5]

; <label>:1054                                    ; preds = %1041, %1037
  %1055 = getelementptr inbounds %struct.envelope* %temp23, i32 0, i32 1, !dbg !8539 ; [#uses=1 type=%struct.ap_uint*] [debug line = 472:12]
  %1056 = bitcast %struct.ap_uint* %1055 to %struct.ap_int_base*, !dbg !8539 ; [#uses=1 type=%struct.ap_int_base*] [debug line = 472:12]
  %1057 = call zeroext i1 @_ZeqILi8ELb0EEbRK11ap_int_baseIXT_EXT0_EXleT_Li64EEEi(%struct.ap_int_base* %1056, i32 5), !dbg !8539 ; [#uses=1 type=i1] [debug line = 472:12]
  br i1 %1057, label %1058, label %1064, !dbg !8539 ; [debug line = 472:12]

; <label>:1058                                    ; preds = %1054
  %1059 = getelementptr inbounds %struct.stream_packet* %recv_data20, i32 0, i32 3, !dbg !8540 ; [#uses=1 type=%struct.ap_uint*] [debug line = 472:34]
  %1060 = bitcast %struct.ap_uint* %1059 to %struct.ap_int_base*, !dbg !8540 ; [#uses=1 type=%struct.ap_int_base*] [debug line = 472:34]
  %1061 = load i32* %5, align 4, !dbg !8540       ; [#uses=1 type=i32] [debug line = 472:34]
  %1062 = call zeroext i1 @_ZeqILi8ELb0EEbRK11ap_int_baseIXT_EXT0_EXleT_Li64EEEi(%struct.ap_int_base* %1060, i32 %1061), !dbg !8540 ; [#uses=1 type=i1] [debug line = 472:34]
  br i1 %1062, label %1063, label %1064, !dbg !8540 ; [debug line = 472:34]

; <label>:1063                                    ; preds = %1058
  store i2 0, i2* @_ZZ8MPI_SendPii13MPI_DATA_TYPEiiiE5state, align 1, !dbg !8541 ; [debug line = 473:5]
  store i32 1, i32* %1, !dbg !8543                ; [debug line = 474:5]
  br label %1399, !dbg !8543                      ; [debug line = 474:5]

; <label>:1064                                    ; preds = %1058, %1054
  %1065 = getelementptr inbounds %struct.stream_packet* %recv_data20, i32 0, i32 4, !dbg !8544 ; [#uses=1 type=%struct.ap_uint.15*] [debug line = 476:12]
  %1066 = bitcast %struct.ap_uint.15* %1065 to %struct.ap_int_base.16*, !dbg !8544 ; [#uses=1 type=%struct.ap_int_base.16*] [debug line = 476:12]
  call void @_ZN11ap_int_baseILi40ELb0ELb1EEclEii(%struct.ap_range_ref.18* sret %54, %struct.ap_int_base.16* %1066, i32 7, i32 4), !dbg !8544 ; [debug line = 476:12]
  %1067 = call zeroext i1 @_ZeqILi40ELb0EEbRK12ap_range_refIXT_EXT0_EEi(%struct.ap_range_ref.18* %54, i32 0), !dbg !8544 ; [#uses=1 type=i1] [debug line = 476:12]
  br i1 %1067, label %1068, label %1394, !dbg !8544 ; [debug line = 476:12]

; <label>:1068                                    ; preds = %1064
  %1069 = getelementptr inbounds %struct.stream_packet* %recv_data20, i32 0, i32 4, !dbg !8545 ; [#uses=1 type=%struct.ap_uint.15*] [debug line = 477:8]
  %1070 = bitcast %struct.ap_uint.15* %1069 to %struct.ap_int_base.16*, !dbg !8545 ; [#uses=1 type=%struct.ap_int_base.16*] [debug line = 477:8]
  call void @_ZN11ap_int_baseILi40ELb0ELb1EEclEii(%struct.ap_range_ref.18* sret %55, %struct.ap_int_base.16* %1070, i32 3, i32 0), !dbg !8545 ; [debug line = 477:8]
  %1071 = call zeroext i1 @_ZeqILi40ELb0EEbRK12ap_range_refIXT_EXT0_EEi(%struct.ap_range_ref.18* %55, i32 0), !dbg !8545 ; [#uses=1 type=i1] [debug line = 477:8]
  br i1 %1071, label %1072, label %1230, !dbg !8545 ; [debug line = 477:8]

; <label>:1072                                    ; preds = %1068
  call void @llvm.dbg.declare(metadata !{%struct.envelope* %temp_diff_src_or_type24}, metadata !8547), !dbg !8549 ; [debug line = 478:15] [debug variable = temp_diff_src_or_type]
  call void @_ZN8envelopeC1Ev(%struct.envelope* %temp_diff_src_or_type24), !dbg !8550 ; [debug line = 478:36]
  call void @_Z18packet_to_envelopeP13stream_packetP8envelope(%struct.stream_packet* %recv_data20, %struct.envelope* %temp_diff_src_or_type24), !dbg !8551 ; [debug line = 479:6]
  %1073 = getelementptr inbounds %struct.envelope* %temp_diff_src_or_type24, i32 0, i32 1, !dbg !8552 ; [#uses=1 type=%struct.ap_uint*] [debug line = 480:9]
  %1074 = bitcast %struct.ap_uint* %1073 to %struct.ap_int_base*, !dbg !8552 ; [#uses=1 type=%struct.ap_int_base*] [debug line = 480:9]
  %1075 = call zeroext i1 @_ZeqILi8ELb0EEbRK11ap_int_baseIXT_EXT0_EXleT_Li64EEEi(%struct.ap_int_base* %1074, i32 0), !dbg !8552 ; [#uses=1 type=i1] [debug line = 480:9]
  br i1 %1075, label %1076, label %1150, !dbg !8552 ; [debug line = 480:9]

; <label>:1076                                    ; preds = %1072
  call void @llvm.dbg.declare(metadata !{i1* %is_duplicated25}, metadata !8553), !dbg !8555 ; [debug line = 482:12] [debug variable = is_duplicated]
  store i1 false, i1* %is_duplicated25, align 1, !dbg !8556 ; [debug line = 482:29]
  call void @llvm.dbg.declare(metadata !{i32* %i26}, metadata !8557), !dbg !8559 ; [debug line = 483:15] [debug variable = i]
  store i32 0, i32* %i26, align 4, !dbg !8560     ; [debug line = 483:21]
  br label %1077, !dbg !8560                      ; [debug line = 483:21]

; <label>:1077                                    ; preds = %1137, %1076
  %1078 = load i32* %i26, align 4, !dbg !8560     ; [#uses=1 type=i32] [debug line = 483:21]
  %1079 = load i32* @_ZL11int_req_num, align 4, !dbg !8560 ; [#uses=1 type=i32] [debug line = 483:21]
  %1080 = icmp slt i32 %1078, %1079, !dbg !8560   ; [#uses=1 type=i1] [debug line = 483:21]
  br i1 %1080, label %1081, label %1140, !dbg !8560 ; [debug line = 483:21]

; <label>:1081                                    ; preds = %1077
  %1082 = load i32* %i26, align 4, !dbg !8561     ; [#uses=1 type=i32] [debug line = 484:11]
  %1083 = sext i32 %1082 to i64, !dbg !8561       ; [#uses=1 type=i64] [debug line = 484:11]
  %1084 = getelementptr inbounds [512 x %struct.envelope]* @_ZL17int_request_array, i32 0, i64 %1083, !dbg !8561 ; [#uses=1 type=%struct.envelope*] [debug line = 484:11]
  %1085 = getelementptr inbounds %struct.envelope* %1084, i32 0, i32 0, !dbg !8561 ; [#uses=1 type=%struct.ap_uint*] [debug line = 484:11]
  %1086 = bitcast %struct.ap_uint* %1085 to %struct.ap_int_base*, !dbg !8561 ; [#uses=1 type=%struct.ap_int_base*] [debug line = 484:11]
  %1087 = getelementptr inbounds %struct.envelope* %temp_diff_src_or_type24, i32 0, i32 0, !dbg !8561 ; [#uses=1 type=%struct.ap_uint*] [debug line = 484:11]
  %1088 = bitcast %struct.ap_uint* %1087 to %struct.ap_int_base*, !dbg !8561 ; [#uses=1 type=%struct.ap_int_base*] [debug line = 484:11]
  %1089 = call zeroext i1 @_ZNK11ap_int_baseILi8ELb0ELb1EEeqILi8ELb0EEEbRKS_IXT_EXT0_EXleT_Li64EEE(%struct.ap_int_base* %1086, %struct.ap_int_base* %1088), !dbg !8561 ; [#uses=1 type=i1] [debug line = 484:11]
  br i1 %1089, label %1090, label %1136, !dbg !8561 ; [debug line = 484:11]

; <label>:1090                                    ; preds = %1081
  %1091 = load i32* %i26, align 4, !dbg !8563     ; [#uses=1 type=i32] [debug line = 485:8]
  %1092 = sext i32 %1091 to i64, !dbg !8563       ; [#uses=1 type=i64] [debug line = 485:8]
  %1093 = getelementptr inbounds [512 x %struct.envelope]* @_ZL17int_request_array, i32 0, i64 %1092, !dbg !8563 ; [#uses=1 type=%struct.envelope*] [debug line = 485:8]
  %1094 = getelementptr inbounds %struct.envelope* %1093, i32 0, i32 6, !dbg !8563 ; [#uses=1 type=%struct.ap_uint.6*] [debug line = 485:8]
  %1095 = bitcast %struct.ap_uint.6* %1094 to %struct.ap_int_base.7*, !dbg !8563 ; [#uses=1 type=%struct.ap_int_base.7*] [debug line = 485:8]
  %1096 = getelementptr inbounds %struct.envelope* %temp_diff_src_or_type24, i32 0, i32 6, !dbg !8563 ; [#uses=1 type=%struct.ap_uint.6*] [debug line = 485:8]
  %1097 = bitcast %struct.ap_uint.6* %1096 to %struct.ap_int_base.7*, !dbg !8563 ; [#uses=1 type=%struct.ap_int_base.7*] [debug line = 485:8]
  %1098 = call zeroext i1 @_ZNK11ap_int_baseILi16ELb0ELb1EEeqILi16ELb0EEEbRKS_IXT_EXT0_EXleT_Li64EEE(%struct.ap_int_base.7* %1095, %struct.ap_int_base.7* %1097), !dbg !8563 ; [#uses=1 type=i1] [debug line = 485:8]
  br i1 %1098, label %1099, label %1136, !dbg !8563 ; [debug line = 485:8]

; <label>:1099                                    ; preds = %1090
  %1100 = load i32* %i26, align 4, !dbg !8564     ; [#uses=1 type=i32] [debug line = 486:8]
  %1101 = sext i32 %1100 to i64, !dbg !8564       ; [#uses=1 type=i64] [debug line = 486:8]
  %1102 = getelementptr inbounds [512 x %struct.envelope]* @_ZL17int_request_array, i32 0, i64 %1101, !dbg !8564 ; [#uses=1 type=%struct.envelope*] [debug line = 486:8]
  %1103 = getelementptr inbounds %struct.envelope* %1102, i32 0, i32 1, !dbg !8564 ; [#uses=1 type=%struct.ap_uint*] [debug line = 486:8]
  %1104 = bitcast %struct.ap_uint* %1103 to %struct.ap_int_base*, !dbg !8564 ; [#uses=1 type=%struct.ap_int_base*] [debug line = 486:8]
  %1105 = getelementptr inbounds %struct.envelope* %temp_diff_src_or_type24, i32 0, i32 1, !dbg !8564 ; [#uses=1 type=%struct.ap_uint*] [debug line = 486:8]
  %1106 = bitcast %struct.ap_uint* %1105 to %struct.ap_int_base*, !dbg !8564 ; [#uses=1 type=%struct.ap_int_base*] [debug line = 486:8]
  %1107 = call zeroext i1 @_ZNK11ap_int_baseILi8ELb0ELb1EEeqILi8ELb0EEEbRKS_IXT_EXT0_EXleT_Li64EEE(%struct.ap_int_base* %1104, %struct.ap_int_base* %1106), !dbg !8564 ; [#uses=1 type=i1] [debug line = 486:8]
  br i1 %1107, label %1108, label %1136, !dbg !8564 ; [debug line = 486:8]

; <label>:1108                                    ; preds = %1099
  %1109 = load i32* %i26, align 4, !dbg !8565     ; [#uses=1 type=i32] [debug line = 487:8]
